---
archs:                 [ armv7, armv7s, arm64, i386, x86_64 ]
platform:              ios
install-name:          /usr/lib/libapt-inst.dylib
current-version:       0.0.0
compatibility-version: 0.0.0
exports:
  - archs:           [ armv7, armv7s, arm64, i386, x86_64 ]
    symbols:         [ __ZN10ExtractTar2GoER12pkgDirStream, __ZN10ExtractTar4DoneEb, __ZN10ExtractTar9StartGzipEv, __ZN10ExtractTarC1ER6FileFdmSs, __ZN10ExtractTarC2ER6FileFdmSs, __ZN10ExtractTarD0Ev,
    __ZN10ExtractTarD1Ev, __ZN10ExtractTarD2Ev, __ZN10debDebFile10GotoMemberEPKc, __ZN10debDebFile11CheckMemberEPKc, __ZN10debDebFile12MergeControlER11pkgDataBase,
    __ZN10debDebFile14ControlExtract6DoItemERN12pkgDirStream4ItemERi, __ZN10debDebFile14ControlExtractD0Ev, __ZN10debDebFile14ControlExtractD1Ev,
    __ZN10debDebFile14ExtractArchiveER12pkgDirStream, __ZN10debDebFile14ExtractControlER11pkgDataBase, __ZN10debDebFile17MemControlExtract11TakeControlEPKvm,
    __ZN10debDebFile17MemControlExtract4ReadERS_, __ZN10debDebFile17MemControlExtract6DoItemERN12pkgDirStream4ItemERi, __ZN10debDebFile17MemControlExtract7ProcessERN12pkgDirStream4ItemEPKhmm,
    __ZN10debDebFile17MemControlExtractD0Ev, __ZN10debDebFile17MemControlExtractD1Ev, __ZN10debDebFileC1ER6FileFd, __ZN10debDebFileC2ER6FileFd,
    __ZN10pkgExtract12FinishedFileERN12pkgDirStream4ItemEi, __ZN10pkgExtract15CheckDirReplaceESsj, __ZN10pkgExtract16HandleOverwritesEN10pkgFLCache12NodeIteratorEb,
    __ZN10pkgExtract4FailERN12pkgDirStream4ItemEi, __ZN10pkgExtract6DoItemERN12pkgDirStream4ItemERi, __ZN10pkgExtract7AbortedEv, __ZN10pkgExtract8FinishedEv,
    __ZN10pkgExtractC1ER10pkgFLCacheN8pkgCache11VerIteratorE, __ZN10pkgExtractC2ER10pkgFLCacheN8pkgCache11VerIteratorE, __ZN10pkgExtractD0Ev, __ZN10pkgExtractD1Ev,
    __ZN10pkgFLCache10TreeLookupEPjPKcS2_mS0_b, __ZN10pkgFLCache11AddConfFileEPKcS1_RKNS_11PkgIteratorEPKh, __ZN10pkgFLCache12AddDiversionERKNS_11PkgIteratorEPKcS4_,
    __ZN10pkgFLCache14BeginDiverLoadEv, __ZN10pkgFLCache15FinishDiverLoadEv, __ZN10pkgFLCache6GetPkgEPKcS1_b, __ZN10pkgFLCache6HeaderC1Ev, __ZN10pkgFLCache6HeaderC2Ev,
    __ZN10pkgFLCache7GetNodeEPKcS1_jbb, __ZN10pkgFLCache8DropNodeEj, __ZN10pkgFLCache8HashNodeERKNS_12NodeIteratorE, __ZN10pkgFLCache9PrintTreeEjm, __ZN10pkgFLCacheC1ER11DynamicMMap,
    __ZN10pkgFLCacheC2ER11DynamicMMap, __ZN11pkgDataBase10GetMetaTmpERSs, __ZN11pkgDataBaseD0Ev, __ZN11pkgDataBaseD1Ev, __ZN12pkgDirStream12FinishedFileERNS_4ItemEi,
    __ZN12pkgDirStream4FailERNS_4ItemEi, __ZN12pkgDirStream6DoItemERNS_4ItemERi, __ZN12pkgDirStream7ProcessERNS_4ItemEPKhmm, __ZN12pkgDirStreamD0Ev, __ZN12pkgDirStreamD1Ev,
    __ZN17pkgCacheGenerator10ListParser19CollectFileProvidesER8pkgCacheNS1_11VerIteratorE, __ZN17pkgCacheGenerator10ListParserD0Ev, __ZN17pkgCacheGenerator10ListParserD1Ev,
    __ZN9ARArchive11LoadHeadersEv, __ZN9ARArchiveC1ER6FileFd, __ZN9ARArchiveC2ER6FileFd, __ZN9ARArchiveD1Ev, __ZN9ARArchiveD2Ev, __ZN9debDpkgDB11InitMetaTmpERSs, __ZN9debDpkgDB11LoadChangesEv,
    __ZN9debDpkgDB13ReadConfFilesEv, __ZN9debDpkgDB13ReadyFileListER10OpProgress, __ZN9debDpkgDB13ReadyPkgCacheER10OpProgress, __ZN9debDpkgDB14ReadDiversionsEv,
    __ZN9debDpkgDB9ReadFListER10OpProgress, __ZN9debDpkgDBC1Ev, __ZN9debDpkgDBC2Ev, __ZN9debDpkgDBD0Ev, __ZN9debDpkgDBD1Ev, __ZN9debDpkgDBD2Ev, __ZNK10pkgFLCache12NodeIterator11RealPackageEv,
    __ZNK10pkgFLCache6Header10CheckSizesERS0_, __ZNK9ARArchive10FindMemberEPKc, __ZNSs12_S_constructIPcEES0_T_S1_RKSaIcESt20forward_iterator_tag,
    __ZNSs12_S_constructIPhEEPcT_S2_RKSaIcESt20forward_iterator_tag, __ZNSs19_M_replace_dispatchIPhEERSsN9__gnu_cxx17__normal_iteratorIPcSsEES5_T_S6_12__false_type, __ZNSsC1IPcEET_S1_RKSaIcE,
    __ZNSsC1IPhEET_S1_RKSaIcE, __ZStplIcSt11char_traitsIcESaIcEESbIT_T0_T1_ERKS6_S8_, __ZTI10ExtractTar, __ZTI10pkgExtract, __ZTI11pkgDataBase, __ZTI12pkgDirStream, __ZTI9debDpkgDB,
    __ZTIN10debDebFile14ControlExtractE, __ZTIN10debDebFile17MemControlExtractE, __ZTIN17pkgCacheGenerator10ListParserE, __ZTS10ExtractTar, __ZTS10pkgExtract, __ZTS11pkgDataBase,
    __ZTS12pkgDirStream, __ZTS9debDpkgDB, __ZTSN10debDebFile14ControlExtractE, __ZTSN10debDebFile17MemControlExtractE, __ZTSN17pkgCacheGenerator10ListParserE, __ZTV10ExtractTar,
    __ZTV10pkgExtract, __ZTV11pkgDataBase, __ZTV12pkgDirStream, __ZTV9debDpkgDB, __ZTVN10debDebFile14ControlExtractE, __ZTVN10debDebFile17MemControlExtractE,
    __ZTVN17pkgCacheGenerator10ListParserE ]
...
