--- !tapi-tbd-v2
archs:                 [ armv7, armv7s, arm64, i386, x86_64 ]
platform:              ios
install-name:          '@rpath/libapt-pkg.dylib'
current-version:       5.0.1
compatibility-version: 5
exports:
  - archs:              [ armv7, armv7s, arm64, i386, x86_64 ]
    symbols:            [ _TFRewritePackageOrder, _TFRewriteSourceOrder,
                          __Z10FileExistsNSt3__112basic_stringIcNS_11char_traitsIcEENS_9allocatorIcEEEE,
                          __Z10GetTempDirRKNSt3__112basic_stringIcNS_11char_traitsIcEENS_9allocatorIcEEEE, __Z10GetTempDirv,
                          __Z10IdentCdromNSt3__112basic_stringIcNS_11char_traitsIcEENS_9allocatorIcEEEERS5_j,
                          __Z10ListUpdateR16pkgAcquireStatusR13pkgSourceListi,
                          __Z10MountCdromNSt3__112basic_stringIcNS_11char_traitsIcEENS_9allocatorIcEEEES5_,
                          __Z10ParseCWordRPKcRNSt3__112basic_stringIcNS2_11char_traitsIcEENS2_9allocatorIcEEEE,
                          __Z10ReadPinDirR9pkgPolicyNSt3__112basic_stringIcNS1_11char_traitsIcEENS1_9allocatorIcEEEE,
                          __Z10RemoveFilePKcRKNSt3__112basic_stringIcNS1_11char_traitsIcEENS1_9allocatorIcEEEE,
                          __Z10RunScriptsPKc, __Z10SHA256_EndP11_SHA256_CTXPc, __Z10SHA384_EndP11_SHA512_CTXPc,
                          __Z10SHA512_EndP11_SHA512_CTXPc, __Z10SafeGetCWDv,
                          __Z10StripEpochRKNSt3__112basic_stringIcNS_11char_traitsIcEENS_9allocatorIcEEEE, __Z10_strrstripPc,
                          __Z10pkgTagHashPKcm,
                          __Z11GetTempFileRKNSt3__112basic_stringIcNS_11char_traitsIcEENS_9allocatorIcEEEEbP6FileFd,
                          __Z11QuoteStringRKNSt3__112basic_stringIcNS_11char_traitsIcEENS_9allocatorIcEEEEPKc,
                          __Z11ReadPinFileR9pkgPolicyNSt3__112basic_stringIcNS1_11char_traitsIcEENS1_9allocatorIcEEEE,
                          __Z11RegexChoiceP12RxChoiceListPPKcS3_, __Z11SHA256_DataPKhmPc, __Z11SHA256_InitP11_SHA256_CTX,
                          __Z11SHA384_DataPKhmPc, __Z11SHA384_InitP11_SHA512_CTX, __Z11SHA512_DataPKhmPc,
                          __Z11SHA512_InitP11_SHA512_CTX, __Z11SetNonBlockib,
                          __Z11StringSplitRKNSt3__112basic_stringIcNS_11char_traitsIcEENS_9allocatorIcEEEES7_j, __Z11TimeRFC1123l,
                          __Z11TimeRFC1123lb, __Z11flExtensionNSt3__112basic_stringIcNS_11char_traitsIcEENS_9allocatorIcEEEE,
                          __Z11flNormalizeNSt3__112basic_stringIcNS_11char_traitsIcEENS_9allocatorIcEEEE, __Z11strv_lengthPPKc,
                          __Z12AddCRC16Byteth, __Z12Base256ToNumPKcRmj, __Z12Base256ToNumPKcRyj,
                          __Z12Base64EncodeRKNSt3__112basic_stringIcNS_11char_traitsIcEENS_9allocatorIcEEEE,
                          __Z12ReadMessagesiRNSt3__16vectorINS_12basic_stringIcNS_11char_traitsIcEENS_9allocatorIcEEEENS4_IS6_EEEE,
                          __Z12SHA256_FinalPhP11_SHA256_CTX, __Z12SHA384_FinalPhP11_SHA512_CTX,
                          __Z12SHA512_FinalPhP11_SHA512_CTX, __Z12SetCloseExecib,
                          __Z12StringToBoolRKNSt3__112basic_stringIcNS_11char_traitsIcEENS_9allocatorIcEEEEi,
                          __Z12UnmountCdromNSt3__112basic_stringIcNS_11char_traitsIcEENS_9allocatorIcEEEE, __Z12_GetErrorObjv,
                          __Z12pkgFixBrokenR11pkgDepCache, __Z13AcquireUpdateR10pkgAcquireibb,
                          __Z13DeQuoteStringRKNSt3__111__wrap_iterIPKcEES5_,
                          __Z13DeQuoteStringRKNSt3__112basic_stringIcNS_11char_traitsIcEENS_9allocatorIcEEEE,
                          __Z13GetSrvRecordsNSt3__112basic_stringIcNS_11char_traitsIcEENS_9allocatorIcEEEERNS_6vectorI6SrvRecNS3_IS7_EEEE,
                          __Z13GetSrvRecordsNSt3__112basic_stringIcNS_11char_traitsIcEENS_9allocatorIcEEEEiRNS_6vectorI6SrvRecNS3_IS7_EEEE,
                          __Z13OutputInDepthmPKc,
                          __Z13ReadConfigDirR13ConfigurationRKNSt3__112basic_stringIcNS1_11char_traitsIcEENS1_9allocatorIcEEEERKbRKj,
                          __Z13SHA256_UpdateP11_SHA256_CTXPKhm, __Z13SHA384_UpdateP11_SHA512_CTXPKhm,
                          __Z13SHA512_UpdateP11_SHA512_CTXPKhm,
                          __Z13URItoFileNameRKNSt3__112basic_stringIcNS_11char_traitsIcEENS_9allocatorIcEEEE,
                          __Z13UTF8ToCodesetPKcRKNSt3__112basic_stringIcNS1_11char_traitsIcEENS1_9allocatorIcEEEEPS7_,
                          __Z13_strtabexpandPcm, __Z13isspace_asciii, __Z13pkgAllUpgradeR11pkgDepCache,
                          __Z13pkgInitConfigR13Configuration, __Z13pkgInitSystemR13ConfigurationRP9pkgSystem,
                          __Z13safe_snprintfPcS_PKcz, __Z13stringcasecmpNSt3__111__wrap_iterIPKcEES3_S2_S2_,
                          __Z13stringcasecmpNSt3__111__wrap_iterIPKcEES3_S3_S3_, __Z13stringcasecmpPKcS0_S0_S0_,
                          __Z13tolower_asciii,
                          __Z14DeEscapeStringRKNSt3__112basic_stringIcNS_11char_traitsIcEENS_9allocatorIcEEEE,
                          __Z14DropPrivilegesv,
                          __Z14ParseQuoteWordRPKcRNSt3__112basic_stringIcNS2_11char_traitsIcEENS2_9allocatorIcEEEE,
                          __Z14PopFromSrvRecsRNSt3__16vectorI6SrvRecNS_9allocatorIS1_EEEE,
                          __Z14ReadConfigFileR13ConfigurationRKNSt3__112basic_stringIcNS1_11char_traitsIcEENS1_9allocatorIcEEEERKbRKj,
                          __Z14RealFileExistsNSt3__112basic_stringIcNS_11char_traitsIcEENS_9allocatorIcEEEE,
                          __Z14TokSplitStringcPcPS_m,
                          __Z14maybe_add_authR3URINSt3__112basic_stringIcNS1_11char_traitsIcEENS1_9allocatorIcEEEE,
                          __Z14pkgApplyStatusR11pkgDepCache, __Z14pkgDistUpgradeR11pkgDepCache, __Z15AutoDetectProxyR3URI,
                          __Z15CheckDomainListRKNSt3__112basic_stringIcNS_11char_traitsIcEENS_9allocatorIcEEEES7_,
                          __Z15CreateDirectoryRKNSt3__112basic_stringIcNS_11char_traitsIcEENS_9allocatorIcEEEES7_,
                          __Z15DirectoryExistsRKNSt3__112basic_stringIcNS_11char_traitsIcEENS_9allocatorIcEEEE,
                          __Z15VectorizeStringRKNSt3__112basic_stringIcNS_11char_traitsIcEENS_9allocatorIcEEEERKc,
                          __Z15pkgPrioSortListR8pkgCachePPNS_7VersionE, __Z16FTPMDTMStrToTimePKcRl, __Z16RFC1123StrToTimePKcRl,
                          __Z18pkgMakeStatusCacheR13pkgSourceListR10OpProgressPP4MMapb, __Z18pkgMinimizeUpgradeR11pkgDepCache,
                          __Z19GetListOfFilesInDirRKNSt3__112basic_stringIcNS_11char_traitsIcEENS_9allocatorIcEEEERKNS_6vectorIS5_NS3_IS5_EEEERKb,
                          __Z19GetListOfFilesInDirRKNSt3__112basic_stringIcNS_11char_traitsIcEENS_9allocatorIcEEEES7_RKbS9_,
                          __Z19GetListOfFilesInDirRKNSt3__112basic_stringIcNS_11char_traitsIcEENS_9allocatorIcEEEEb,
                          __Z19GetModificationTimeRKNSt3__112basic_stringIcNS_11char_traitsIcEENS_9allocatorIcEEEE,
                          __Z20SplitClearSignedFileRKNSt3__112basic_stringIcNS_11char_traitsIcEENS_9allocatorIcEEEEP6FileFdPNS_6vectorIS5_NS3_IS5_EEEES9_,
                          __Z22pkgMakeOnlyStatusCacheR10OpProgressPP11DynamicMMap, __Z23FindMountPointForDevicePKc,
                          __Z24OpenMaybeClearSignedFileRKNSt3__112basic_stringIcNS_11char_traitsIcEENS_9allocatorIcEEEER6FileFd,
                          __Z26CreateAPTDirectoryIfNeededRKNSt3__112basic_stringIcNS_11char_traitsIcEENS_9allocatorIcEEEES7_,
                          __Z29MergeKeepFdsFromConfigurationRNSt3__13setIiNS_4lessIiEENS_9allocatorIiEEEE,
                          __Z30ChangeOwnerAndPermissionOfFilePKcS0_S0_S0_t,
                          __Z31StartsWithGPGClearTextSignatureRKNSt3__112basic_stringIcNS_11char_traitsIcEENS_9allocatorIcEEEE,
                          __Z4GlobRKNSt3__112basic_stringIcNS_11char_traitsIcEENS_9allocatorIcEEEEi,
                          __Z5PopenPPKcR6FileFdRiNS2_8OpenModeE, __Z5PopenPPKcR6FileFdRiNS2_8OpenModeEb,
                          __Z6RenameNSt3__112basic_stringIcNS_11char_traitsIcEENS_9allocatorIcEEEES5_, __Z6RunCmdPKc,
                          __Z6SigINTi, __Z6WaitFdibm,
                          __Z7GetLockNSt3__112basic_stringIcNS_11char_traitsIcEENS_9allocatorIcEEEEb,
                          __Z7Hex2NumN3APT10StringViewEPhj,
                          __Z7Hex2NumRKNSt3__112basic_stringIcNS_11char_traitsIcEENS_9allocatorIcEEEEPhj, __Z8AddCRC16tPKvy,
                          __Z8CopyFileR6FileFdS0_, __Z8ExecForkNSt3__13setIiNS_4lessIiEENS_9allocatorIiEEEE, __Z8ExecForkv,
                          __Z8ExecGPGVRKNSt3__112basic_stringIcNS_11char_traitsIcEENS_9allocatorIcEEEES7_RKiPiS7_,
                          __Z8ExecWaitiPKcb, __Z8StrToNumPKcRmjj, __Z8StrToNumPKcRyjj,
                          __Z8SubstVarNSt3__112basic_stringIcNS_11char_traitsIcEENS_9allocatorIcEEEEPK8SubstVar,
                          __Z8SubstVarRKNSt3__112basic_stringIcNS_11char_traitsIcEENS_9allocatorIcEEEES7_S7_,
                          __Z8flNoLinkNSt3__112basic_stringIcNS_11char_traitsIcEENS_9allocatorIcEEEE,
                          __Z8flNotDirNSt3__112basic_stringIcNS_11char_traitsIcEENS_9allocatorIcEEEE,
                          __Z8ioprintfRNSt3__113basic_ostreamIcNS_11char_traitsIcEEEEPKcz,
                          __Z9IsMountedRNSt3__112basic_stringIcNS_11char_traitsIcEENS_9allocatorIcEEEE,
                          __Z9LookupTagRKNSt3__112basic_stringIcNS_11char_traitsIcEENS_9allocatorIcEEEEPKcS9_, __Z9SizeToStrd,
                          __Z9StrToTimeRKNSt3__112basic_stringIcNS_11char_traitsIcEENS_9allocatorIcEEEERl,
                          __Z9TFRewriteP7__sFILERK13pkgTagSectionPPKcP13TFRewriteData, __Z9TimeToStrm, __Z9_strstripPc,
                          __Z9flAbsPathNSt3__112basic_stringIcNS_11char_traitsIcEENS_9allocatorIcEEEE,
                          __Z9flCombineNSt3__112basic_stringIcNS_11char_traitsIcEENS_9allocatorIcEEEES5_,
                          __Z9flNotFileNSt3__112basic_stringIcNS_11char_traitsIcEENS_9allocatorIcEEEE,
                          __Z9stringcmpNSt3__111__wrap_iterIPKcEES3_S2_S2_, __Z9stringcmpNSt3__111__wrap_iterIPKcEES3_S3_S3_,
                          __Z9stringcmpPKcS0_S0_S0_,
                          __Z9strprintfRNSt3__112basic_stringIcNS_11char_traitsIcEENS_9allocatorIcEEEEPKcz,
                          __ZN10HashString15SupportedHashesEv, __ZN10HashString16_SupportedHashesE,
                          __ZN10HashString8FromFileENSt3__112basic_stringIcNS0_11char_traitsIcEENS0_9allocatorIcEEEE,
                          __ZN10HashStringC1ENSt3__112basic_stringIcNS0_11char_traitsIcEENS0_9allocatorIcEEEE,
                          __ZN10HashStringC1ENSt3__112basic_stringIcNS0_11char_traitsIcEENS0_9allocatorIcEEEES6_,
                          __ZN10HashStringC1Ev,
                          __ZN10HashStringC2ENSt3__112basic_stringIcNS0_11char_traitsIcEENS0_9allocatorIcEEEE,
                          __ZN10HashStringC2ENSt3__112basic_stringIcNS0_11char_traitsIcEENS0_9allocatorIcEEEES6_,
                          __ZN10HashStringC2Ev, __ZN10OpProgress11CheckChangeEf,
                          __ZN10OpProgress11SubProgressEyRKNSt3__112basic_stringIcNS0_11char_traitsIcEENS0_9allocatorIcEEEEf,
                          __ZN10OpProgress15OverallProgressEyyyRKNSt3__112basic_stringIcNS0_11char_traitsIcEENS0_9allocatorIcEEEE,
                          __ZN10OpProgress8ProgressEy, __ZN10OpProgressC1Ev, __ZN10OpProgressC2Ev,
                          __ZN10SourceCopy12RewriteEntryER6FileFdRKNSt3__112basic_stringIcNS2_11char_traitsIcEENS2_9allocatorIcEEEE,
                          __ZN10SourceCopy7GetFileERNSt3__112basic_stringIcNS0_11char_traitsIcEENS0_9allocatorIcEEEERy,
                          __ZN10SourceCopyC1Ev, __ZN10SourceCopyC2Ev, __ZN10SourceCopyD0Ev, __ZN10SourceCopyD1Ev,
                          __ZN10SourceCopyD2Ev, __ZN10edspSystem10InitializeER13Configuration,
                          __ZN10edspSystem14AddStatusFilesERNSt3__16vectorIP12pkgIndexFileNS0_9allocatorIS3_EEEE,
                          __ZN10edspSystemC1Ev, __ZN10edspSystemC2Ev, __ZN10edspSystemD0Ev, __ZN10edspSystemD1Ev,
                          __ZN10edspSystemD2Ev,
                          __ZN10eippSystem14AddStatusFilesERNSt3__16vectorIP12pkgIndexFileNS0_9allocatorIS3_EEEE,
                          __ZN10eippSystemC1Ev, __ZN10eippSystemC2Ev, __ZN10eippSystemD0Ev, __ZN10eippSystemD1Ev,
                          __ZN10eippSystemD2Ev,
                          __ZN10pkgAcqFile4DoneERKNSt3__112basic_stringIcNS0_11char_traitsIcEENS0_9allocatorIcEEEERK14HashStringListPKN10pkgAcquire12MethodConfigE,
                          __ZN10pkgAcqFile6FailedERKNSt3__112basic_stringIcNS0_11char_traitsIcEENS0_9allocatorIcEEEEPKN10pkgAcquire12MethodConfigE,
                          __ZN10pkgAcqFileC1EP10pkgAcquireRKNSt3__112basic_stringIcNS2_11char_traitsIcEENS2_9allocatorIcEEEERK14HashStringListySA_SA_SA_SA_b,
                          __ZN10pkgAcqFileC2EP10pkgAcquireRKNSt3__112basic_stringIcNS2_11char_traitsIcEENS2_9allocatorIcEEEERK14HashStringListySA_SA_SA_SA_b,
                          __ZN10pkgAcqFileD0Ev, __ZN10pkgAcqFileD1Ev, __ZN10pkgAcqFileD2Ev, __ZN10pkgAcquire10InitializeEv,
                          __ZN10pkgAcquire10RunFdsSaneEP6fd_setS1_, __ZN10pkgAcquire10WorkerStepEPNS_6WorkerE,
                          __ZN10pkgAcquire11FetchNeededEv, __ZN10pkgAcquire11TotalNeededEv,
                          __ZN10pkgAcquire11UriIteratorC1EPNS_5QueueE, __ZN10pkgAcquire11UriIteratorC2EPNS_5QueueE,
                          __ZN10pkgAcquire11UriIteratorD0Ev, __ZN10pkgAcquire11UriIteratorD1Ev,
                          __ZN10pkgAcquire11UriIteratorD2Ev, __ZN10pkgAcquire12MethodConfigC1Ev,
                          __ZN10pkgAcquire12MethodConfigC2Ev, __ZN10pkgAcquire12MethodConfigD0Ev,
                          __ZN10pkgAcquire12MethodConfigD1Ev, __ZN10pkgAcquire12MethodConfigD2Ev,
                          __ZN10pkgAcquire14PartialPresentEv, __ZN10pkgAcquire3AddEPNS_4ItemE,
                          __ZN10pkgAcquire3AddEPNS_6WorkerE, __ZN10pkgAcquire3RunEi, __ZN10pkgAcquire4BumpEv,
                          __ZN10pkgAcquire4Item10VerifyDoneERKNSt3__112basic_stringIcNS1_11char_traitsIcEENS1_9allocatorIcEEEEPKNS_12MethodConfigE,
                          __ZN10pkgAcquire4Item11GetItemDescEv, __ZN10pkgAcquire4Item13RenameOnErrorENS0_18RenameOnErrorStateE,
                          __ZN10pkgAcquire4Item17IsRedirectionLoopERKNSt3__112basic_stringIcNS1_11char_traitsIcEENS1_9allocatorIcEEEE,
                          __ZN10pkgAcquire4Item19ReportMirrorFailureERKNSt3__112basic_stringIcNS1_11char_traitsIcEENS1_9allocatorIcEEEE,
                          __ZN10pkgAcquire4Item19SetActiveSubprocessERKNSt3__112basic_stringIcNS1_11char_traitsIcEENS1_9allocatorIcEEEE,
                          __ZN10pkgAcquire4Item4DoneERKNSt3__112basic_stringIcNS1_11char_traitsIcEENS1_9allocatorIcEEEERK14HashStringListPKNS_12MethodConfigE,
                          __ZN10pkgAcquire4Item5StartERKNSt3__112basic_stringIcNS1_11char_traitsIcEENS1_9allocatorIcEEEEy,
                          __ZN10pkgAcquire4Item6FailedERKNSt3__112basic_stringIcNS1_11char_traitsIcEENS1_9allocatorIcEEEEPKNS_12MethodConfigE,
                          __ZN10pkgAcquire4Item6RenameERKNSt3__112basic_stringIcNS1_11char_traitsIcEENS1_9allocatorIcEEEES9_,
                          __ZN10pkgAcquire4Item7DequeueEv, __ZN10pkgAcquire4Item8FinishedEv, __ZN10pkgAcquire4Item8PriorityEv,
                          __ZN10pkgAcquire4Item8QueueURIERNS_8ItemDescE, __ZN10pkgAcquire4ItemC2EPS_, __ZN10pkgAcquire4ItemD0Ev,
                          __ZN10pkgAcquire4ItemD1Ev, __ZN10pkgAcquire4ItemD2Ev,
                          __ZN10pkgAcquire5CleanENSt3__112basic_stringIcNS0_11char_traitsIcEENS0_9allocatorIcEEEE,
                          __ZN10pkgAcquire5Queue4BumpEv, __ZN10pkgAcquire5Queue5CycleEv,
                          __ZN10pkgAcquire5Queue7DequeueEPNS_4ItemE, __ZN10pkgAcquire5Queue7EnqueueERNS_8ItemDescE,
                          __ZN10pkgAcquire5Queue7StartupEv,
                          __ZN10pkgAcquire5Queue8FindItemENSt3__112basic_stringIcNS1_11char_traitsIcEENS1_9allocatorIcEEEEPNS_6WorkerE,
                          __ZN10pkgAcquire5Queue8ItemDoneEPNS0_5QItemE, __ZN10pkgAcquire5Queue8ShutdownEb,
                          __ZN10pkgAcquire5QueueC1ERKNSt3__112basic_stringIcNS1_11char_traitsIcEENS1_9allocatorIcEEEEPS_,
                          __ZN10pkgAcquire5QueueC2ERKNSt3__112basic_stringIcNS1_11char_traitsIcEENS1_9allocatorIcEEEEPS_,
                          __ZN10pkgAcquire5QueueD0Ev, __ZN10pkgAcquire5QueueD1Ev, __ZN10pkgAcquire5QueueD2Ev,
                          __ZN10pkgAcquire5SetupEP16pkgAcquireStatusRKNSt3__112basic_stringIcNS2_11char_traitsIcEENS2_9allocatorIcEEEE,
                          __ZN10pkgAcquire6RemoveEPNS_4ItemE, __ZN10pkgAcquire6RemoveEPNS_6WorkerE,
                          __ZN10pkgAcquire6RunFdsEP6fd_setS1_, __ZN10pkgAcquire6SetFdsERiP6fd_setS2_, __ZN10pkgAcquire6UriEndEv,
                          __ZN10pkgAcquire6Worker10OutFdReadyEv,
                          __ZN10pkgAcquire6Worker11MediaChangeENSt3__112basic_stringIcNS1_11char_traitsIcEENS1_9allocatorIcEEEE,
                          __ZN10pkgAcquire6Worker11RunMessagesEv,
                          __ZN10pkgAcquire6Worker12CapabilitiesENSt3__112basic_stringIcNS1_11char_traitsIcEENS1_9allocatorIcEEEE,
                          __ZN10pkgAcquire6Worker12PrepareFilesEPKcPKNS_5Queue5QItemE, __ZN10pkgAcquire6Worker12ReadMessagesEv,
                          __ZN10pkgAcquire6Worker13MethodFailureEv, __ZN10pkgAcquire6Worker17SendConfigurationEv,
                          __ZN10pkgAcquire6Worker5PulseEv, __ZN10pkgAcquire6Worker5StartEv, __ZN10pkgAcquire6Worker8ItemDoneEv,
                          __ZN10pkgAcquire6Worker9ConstructEv, __ZN10pkgAcquire6Worker9InFdReadyEv,
                          __ZN10pkgAcquire6Worker9QueueItemEPNS_5Queue5QItemE, __ZN10pkgAcquire6WorkerC1EPNS_12MethodConfigE,
                          __ZN10pkgAcquire6WorkerC1EPNS_5QueueEPNS_12MethodConfigEP16pkgAcquireStatus,
                          __ZN10pkgAcquire6WorkerC2EPNS_12MethodConfigE,
                          __ZN10pkgAcquire6WorkerC2EPNS_5QueueEPNS_12MethodConfigEP16pkgAcquireStatus,
                          __ZN10pkgAcquire6WorkerD0Ev, __ZN10pkgAcquire6WorkerD1Ev, __ZN10pkgAcquire6WorkerD2Ev,
                          __ZN10pkgAcquire7DequeueEPNS_4ItemE, __ZN10pkgAcquire7EnqueueERNS_8ItemDescE,
                          __ZN10pkgAcquire7GetLockERKNSt3__112basic_stringIcNS0_11char_traitsIcEENS0_9allocatorIcEEEE,
                          __ZN10pkgAcquire8ShutdownEv, __ZN10pkgAcquire8UriBeginEv,
                          __ZN10pkgAcquire9GetConfigENSt3__112basic_stringIcNS0_11char_traitsIcEENS0_9allocatorIcEEEE,
                          __ZN10pkgAcquire9QueueNameENSt3__112basic_stringIcNS0_11char_traitsIcEENS0_9allocatorIcEEEERPKNS_12MethodConfigE,
                          __ZN10pkgAcquireC1EP16pkgAcquireStatus, __ZN10pkgAcquireC1Ev, __ZN10pkgAcquireC2EP16pkgAcquireStatus,
                          __ZN10pkgAcquireC2Ev, __ZN10pkgAcquireD0Ev, __ZN10pkgAcquireD1Ev, __ZN10pkgAcquireD2Ev,
                          __ZN10pkgRecords6LookupERKN8pkgCache15VerFileIteratorE,
                          __ZN10pkgRecords6LookupERKN8pkgCache16DescFileIteratorE, __ZN10pkgRecords6ParserC2Ev,
                          __ZN10pkgRecords6ParserD0Ev, __ZN10pkgRecords6ParserD1Ev, __ZN10pkgRecords6ParserD2Ev,
                          __ZN10pkgRecordsC1ER8pkgCache, __ZN10pkgRecordsC2ER8pkgCache, __ZN10pkgRecordsD0Ev,
                          __ZN10pkgRecordsD1Ev, __ZN10pkgRecordsD2Ev, __ZN10pkgTagFile4InitEP6FileFd,
                          __ZN10pkgTagFile4InitEP6FileFdNS_5FlagsE, __ZN10pkgTagFile4JumpER13pkgTagSectiony,
                          __ZN10pkgTagFile4StepER13pkgTagSection, __ZN10pkgTagFile6OffsetEv, __ZN10pkgTagFileC1EP6FileFd,
                          __ZN10pkgTagFileC1EP6FileFdNS_5FlagsE, __ZN10pkgTagFileC2EP6FileFd,
                          __ZN10pkgTagFileC2EP6FileFdNS_5FlagsE, __ZN10pkgTagFileD0Ev, __ZN10pkgTagFileD1Ev,
                          __ZN10pkgTagFileD2Ev, __ZN11CommandLine10GetCommandEPKNS_8DispatchEjPKPKc,
                          __ZN11CommandLine11DispatchArgEPKNS_8DispatchEb, __ZN11CommandLine11DispatchArgEPNS_8DispatchEb,
                          __ZN11CommandLine12SaveInConfigERKjPKPKc, __ZN11CommandLine5ParseEiPPKc,
                          __ZN11CommandLine8MakeArgsEcPKcS1_m, __ZN11CommandLine9HandleOptERiiPPKcRS2_PNS_4ArgsEb,
                          __ZN11CommandLineC1EPNS_4ArgsEP13Configuration, __ZN11CommandLineC1Ev,
                          __ZN11CommandLineC2EPNS_4ArgsEP13Configuration, __ZN11CommandLineC2Ev, __ZN11CommandLineD1Ev,
                          __ZN11CommandLineD2Ev, __ZN11DynamicMMap11RawAllocateEym, __ZN11DynamicMMap11WriteStringEPKcm,
                          __ZN11DynamicMMap4GrowEv, __ZN11DynamicMMap8AllocateEm, __ZN11DynamicMMapC1ER6FileFdmRKmS3_S3_,
                          __ZN11DynamicMMapC1EmRKmS1_S1_, __ZN11DynamicMMapC2ER6FileFdmRKmS3_S3_,
                          __ZN11DynamicMMapC2EmRKmS1_S1_, __ZN11DynamicMMapD0Ev, __ZN11DynamicMMapD1Ev, __ZN11DynamicMMapD2Ev,
                          __ZN11GlobalError10DumpErrorsERNSt3__113basic_ostreamIcNS0_11char_traitsIcEEEERKNS_7MsgTypeERKb,
                          __ZN11GlobalError10PopMessageERNSt3__112basic_stringIcNS0_11char_traitsIcEENS0_9allocatorIcEEEE,
                          __ZN11GlobalError11InsertErrnoENS_7MsgTypeEPKcS2_RA1_13__va_list_tagiRm,
                          __ZN11GlobalError11InsertErrnoERKNS_7MsgTypeEPKcS4_z, __ZN11GlobalError11PushToStackEv,
                          __ZN11GlobalError11ReturnErrorEv, __ZN11GlobalError13RevertToStackEv,
                          __ZN11GlobalError14MergeWithStackEv, __ZN11GlobalError5DebugEPKcz, __ZN11GlobalError5ErrnoEPKcS1_z,
                          __ZN11GlobalError5ErrorEPKcz, __ZN11GlobalError5FatalEPKcz, __ZN11GlobalError6DebugEEPKcS1_z,
                          __ZN11GlobalError6FatalEEPKcS1_z, __ZN11GlobalError6InsertENS_7MsgTypeEPKcRA1_13__va_list_tagRm,
                          __ZN11GlobalError6InsertERKNS_7MsgTypeEPKcz, __ZN11GlobalError6NoticeEPKcz,
                          __ZN11GlobalError7DiscardEv, __ZN11GlobalError7NoticeEEPKcS1_z, __ZN11GlobalError7WarningEPKcz,
                          __ZN11GlobalError8WarningEEPKcS1_z, __ZN11GlobalErrorC1Ev, __ZN11GlobalErrorC2Ev,
                          __ZN11IndexTargetC1ERKNSt3__112basic_stringIcNS0_11char_traitsIcEENS0_9allocatorIcEEEES8_S8_S8_bbRKNS0_3mapIS6_S6_NS0_4lessIS6_EENS4_INS0_4pairIS7_S6_EEEEEE,
                          __ZN11IndexTargetC2ERKNSt3__112basic_stringIcNS0_11char_traitsIcEENS0_9allocatorIcEEEES8_S8_S8_bbRKNS0_3mapIS6_S6_NS0_4lessIS6_EENS4_INS0_4pairIS7_S6_EEEEEE,
                          __ZN11PackageCopy12RewriteEntryER6FileFdRKNSt3__112basic_stringIcNS2_11char_traitsIcEENS2_9allocatorIcEEEE,
                          __ZN11PackageCopy7GetFileERNSt3__112basic_stringIcNS0_11char_traitsIcEENS0_9allocatorIcEEEERy,
                          __ZN11PackageCopyC1Ev, __ZN11PackageCopyC2Ev, __ZN11PackageCopyD0Ev, __ZN11PackageCopyD1Ev,
                          __ZN11PackageCopyD2Ev,
                          __ZN11pkgAcqIndex12CommonFailedERKNSt3__112basic_stringIcNS0_11char_traitsIcEENS0_9allocatorIcEEEES6_S8_PKN10pkgAcquire12MethodConfigE,
                          __ZN11pkgAcqIndex16TransactionStateEN21pkgAcqTransactionItem17TransactionStatesE,
                          __ZN11pkgAcqIndex17StageDownloadDoneERKNSt3__112basic_stringIcNS0_11char_traitsIcEENS0_9allocatorIcEEEE,
                          __ZN11pkgAcqIndex19StageDecompressDoneEv,
                          __ZN11pkgAcqIndex4DoneERKNSt3__112basic_stringIcNS0_11char_traitsIcEENS0_9allocatorIcEEEERK14HashStringListPKN10pkgAcquire12MethodConfigE,
                          __ZN11pkgAcqIndex4InitERKNSt3__112basic_stringIcNS0_11char_traitsIcEENS0_9allocatorIcEEEES8_S8_,
                          __ZN11pkgAcqIndex6FailedERKNSt3__112basic_stringIcNS0_11char_traitsIcEENS0_9allocatorIcEEEEPKN10pkgAcquire12MethodConfigE,
                          __ZN11pkgAcqIndexC1EP10pkgAcquireP18pkgAcqMetaClearSigRK11IndexTargetb,
                          __ZN11pkgAcqIndexC2EP10pkgAcquireP18pkgAcqMetaClearSigRK11IndexTargetb, __ZN11pkgAcqIndexD0Ev,
                          __ZN11pkgAcqIndexD1Ev, __ZN11pkgAcqIndexD2Ev,
                          __ZN11pkgDepCache10IsDeleteOkERKN8pkgCache11PkgIteratorEbmb,
                          __ZN11pkgDepCache10MarkDeleteERKN8pkgCache11PkgIteratorEbmb,
                          __ZN11pkgDepCache10StateCache10StripEpochEPKc,
                          __ZN11pkgDepCache10StateCache6UpdateEN8pkgCache11PkgIteratorERS1_,
                          __ZN11pkgDepCache11ActionGroup7releaseEv, __ZN11pkgDepCache11ActionGroupC1ERS_,
                          __ZN11pkgDepCache11ActionGroupC2ERS_, __ZN11pkgDepCache11ActionGroupD0Ev,
                          __ZN11pkgDepCache11ActionGroupD1Ev, __ZN11pkgDepCache11ActionGroupD2Ev,
                          __ZN11pkgDepCache11IsInstallOkERKN8pkgCache11PkgIteratorEbmb,
                          __ZN11pkgDepCache11MarkInstallERKN8pkgCache11PkgIteratorEbmbb,
                          __ZN11pkgDepCache11MarkPackageERKN8pkgCache11PkgIteratorERKNS0_11VerIteratorERKbS8_,
                          __ZN11pkgDepCache12MarkAndSweepERNS_13InRootSetFuncE, __ZN11pkgDepCache12MarkAndSweepEv,
                          __ZN11pkgDepCache12MarkRequiredERNS_13InRootSetFuncE,
                          __ZN11pkgDepCache12SetReInstallERKN8pkgCache11PkgIteratorEb,
                          __ZN11pkgDepCache13BuildGroupOrsERKN8pkgCache11VerIteratorE,
                          __ZN11pkgDepCache13readStateFileEP10OpProgress, __ZN11pkgDepCache14GetRootSetFuncEv,
                          __ZN11pkgDepCache14IsModeChangeOkENS_8ModeListERKN8pkgCache11PkgIteratorEmb,
                          __ZN11pkgDepCache14UpdateVerStateERKN8pkgCache11PkgIteratorE,
                          __ZN11pkgDepCache14writeStateFileEP10OpProgressb,
                          __ZN11pkgDepCache15DependencyStateERKN8pkgCache11DepIteratorE,
                          __ZN11pkgDepCache19GetCandidateVersionERKN8pkgCache11PkgIteratorE,
                          __ZN11pkgDepCache19MarkFollowsSuggestsEv,
                          __ZN11pkgDepCache19SetCandidateReleaseEN8pkgCache11VerIteratorERKNSt3__112basic_stringIcNS2_11char_traitsIcEENS2_9allocatorIcEEEE,
                          __ZN11pkgDepCache19SetCandidateReleaseEN8pkgCache11VerIteratorERKNSt3__112basic_stringIcNS2_11char_traitsIcEENS2_9allocatorIcEEEERNS2_4listINS2_4pairIS1_S1_EENS6_ISD_EEEE,
                          __ZN11pkgDepCache19SetCandidateVersionEN8pkgCache11VerIteratorE,
                          __ZN11pkgDepCache21MarkFollowsRecommendsEv,
                          __ZN11pkgDepCache32IsDeleteOkProtectInstallRequestsERKN8pkgCache11PkgIteratorEbmb,
                          __ZN11pkgDepCache37IsInstallOkMultiArchSameVersionSyncedERKN8pkgCache11PkgIteratorEbmb,
                          __ZN11pkgDepCache46IsInstallOkDependenciesSatisfiableByCandidatesERKN8pkgCache11PkgIteratorEbmb,
                          __ZN11pkgDepCache4InitEP10OpProgress, __ZN11pkgDepCache5SweepEv,
                          __ZN11pkgDepCache6Policy11GetPriorityERKN8pkgCache11PkgIteratorE,
                          __ZN11pkgDepCache6Policy11GetPriorityERKN8pkgCache11VerIteratorEb,
                          __ZN11pkgDepCache6Policy11GetPriorityERKN8pkgCache15PkgFileIteratorE,
                          __ZN11pkgDepCache6Policy15GetCandidateVerERKN8pkgCache11PkgIteratorE,
                          __ZN11pkgDepCache6UpdateEN8pkgCache11DepIteratorE, __ZN11pkgDepCache6UpdateEP10OpProgress,
                          __ZN11pkgDepCache6UpdateERKN8pkgCache11PkgIteratorE,
                          __ZN11pkgDepCache8AddSizesERKN8pkgCache11PkgIteratorEb,
                          __ZN11pkgDepCache8CheckDepERKN8pkgCache11DepIteratorEiRNS0_11PkgIteratorE,
                          __ZN11pkgDepCache8MarkAutoERKN8pkgCache11PkgIteratorEb,
                          __ZN11pkgDepCache8MarkKeepERKN8pkgCache11PkgIteratorEbbm,
                          __ZN11pkgDepCache9AddStatesERKN8pkgCache11PkgIteratorEb, __ZN11pkgDepCacheC1EP8pkgCachePNS_6PolicyE,
                          __ZN11pkgDepCacheC2EP8pkgCachePNS_6PolicyE, __ZN11pkgDepCacheD0Ev, __ZN11pkgDepCacheD1Ev,
                          __ZN11pkgDepCacheD2Ev, __ZN11pkgSimulate10RealRemoveEN8pkgCache11PkgIteratorEb,
                          __ZN11pkgSimulate11RealInstallEN8pkgCache11PkgIteratorENSt3__112basic_stringIcNS2_11char_traitsIcEENS2_9allocatorIcEEEE,
                          __ZN11pkgSimulate11ShortBreaksEv, __ZN11pkgSimulate13RealConfigureEN8pkgCache11PkgIteratorE,
                          __ZN11pkgSimulate3Go2EPN3APT8Progress14PackageManagerE,
                          __ZN11pkgSimulate6RemoveEN8pkgCache11PkgIteratorEb,
                          __ZN11pkgSimulate7InstallEN8pkgCache11PkgIteratorENSt3__112basic_stringIcNS2_11char_traitsIcEENS2_9allocatorIcEEEE,
                          __ZN11pkgSimulate8DescribeEN8pkgCache11PkgIteratorERNSt3__113basic_ostreamIcNS2_11char_traitsIcEEEEbb,
                          __ZN11pkgSimulate9ConfigureEN8pkgCache11PkgIteratorE, __ZN11pkgSimulateC1EP11pkgDepCache,
                          __ZN11pkgSimulateC2EP11pkgDepCache, __ZN11pkgSimulateD0Ev, __ZN11pkgSimulateD1Ev,
                          __ZN11pkgSimulateD2Ev, __ZN12MD5Summation3AddEPKhy, __ZN12MD5Summation6ResultEv,
                          __ZN12MD5SummationC1Ev, __ZN12MD5SummationC2Ev, __ZN12pkgAcqMethod11FetchResult10TakeHashesER6Hashes,
                          __ZN12pkgAcqMethod11FetchResultC1Ev, __ZN12pkgAcqMethod11FetchResultC2Ev,
                          __ZN12pkgAcqMethod11FetchResultD0Ev, __ZN12pkgAcqMethod11FetchResultD1Ev,
                          __ZN12pkgAcqMethod11FetchResultD2Ev,
                          __ZN12pkgAcqMethod13ConfigurationENSt3__112basic_stringIcNS0_11char_traitsIcEENS0_9allocatorIcEEEE,
                          __ZN12pkgAcqMethod14DropPrivsOrDieEv, __ZN12pkgAcqMethod3LogEPKcz, __ZN12pkgAcqMethod3RunEb,
                          __ZN12pkgAcqMethod4FailENSt3__112basic_stringIcNS0_11char_traitsIcEENS0_9allocatorIcEEEEb,
                          __ZN12pkgAcqMethod4FailEb, __ZN12pkgAcqMethod6StatusEPKcz, __ZN12pkgAcqMethod7DequeueEv,
                          __ZN12pkgAcqMethod7URIDoneERNS_11FetchResultEPS0_,
                          __ZN12pkgAcqMethod8RedirectERKNSt3__112basic_stringIcNS0_11char_traitsIcEENS0_9allocatorIcEEEE,
                          __ZN12pkgAcqMethod8URIStartERNS_11FetchResultE, __ZN12pkgAcqMethod9FetchItemC1Ev,
                          __ZN12pkgAcqMethod9FetchItemC2Ev, __ZN12pkgAcqMethod9FetchItemD0Ev, __ZN12pkgAcqMethod9FetchItemD1Ev,
                          __ZN12pkgAcqMethod9FetchItemD2Ev,
                          __ZN12pkgAcqMethod9MediaFailENSt3__112basic_stringIcNS0_11char_traitsIcEENS0_9allocatorIcEEEES6_,
                          __ZN12pkgAcqMethodC1EPKcm, __ZN12pkgAcqMethodC2EPKcm, __ZN12pkgAcqMethodD0Ev,
                          __ZN12pkgAcqMethodD1Ev, __ZN12pkgAcqMethodD2Ev, __ZN12pkgCacheFile11BuildCachesEP10OpProgressb,
                          __ZN12pkgCacheFile11BuildPolicyEP10OpProgress, __ZN12pkgCacheFile12AddIndexFileEP12pkgIndexFile,
                          __ZN12pkgCacheFile12RemoveCachesEv, __ZN12pkgCacheFile13BuildDepCacheEP10OpProgress,
                          __ZN12pkgCacheFile15BuildSourceListEP10OpProgress, __ZN12pkgCacheFile4OpenEP10OpProgressb,
                          __ZN12pkgCacheFile5CloseEv, __ZN12pkgCacheFileC1EP11pkgDepCache, __ZN12pkgCacheFileC1Ev,
                          __ZN12pkgCacheFileC2EP11pkgDepCache, __ZN12pkgCacheFileC2Ev, __ZN12pkgCacheFileD0Ev,
                          __ZN12pkgCacheFileD1Ev, __ZN12pkgCacheFileD2Ev, __ZN12pkgIndexFile12LanguageCodeEv,
                          __ZN12pkgIndexFile17CheckLanguageCodeEPKc, __ZN12pkgIndexFile21TranslationsAvailableEv,
                          __ZN12pkgIndexFile4Type10GlobalListE, __ZN12pkgIndexFile4Type13GlobalListLenE,
                          __ZN12pkgIndexFile4Type7GetTypeEPKc, __ZN12pkgIndexFile4TypeC1Ev, __ZN12pkgIndexFile4TypeC2Ev,
                          __ZN12pkgIndexFileC2Eb, __ZN12pkgIndexFileD0Ev, __ZN12pkgIndexFileD1Ev, __ZN12pkgIndexFileD2Ev,
                          __ZN12pkgOrderList10VisitRDepsEMS_FbN8pkgCache11DepIteratorEENS0_11PkgIteratorE,
                          __ZN12pkgOrderList11OrderUnpackEPNSt3__112basic_stringIcNS0_11char_traitsIcEENS0_9allocatorIcEEEE,
                          __ZN12pkgOrderList12DepConfigureEN8pkgCache11DepIteratorE,
                          __ZN12pkgOrderList12DepUnPackDepEN8pkgCache11DepIteratorE,
                          __ZN12pkgOrderList12DepUnPackPreEN8pkgCache11DepIteratorE,
                          __ZN12pkgOrderList13DepUnPackCritEN8pkgCache11DepIteratorE,
                          __ZN12pkgOrderList13DepUnPackPreDEN8pkgCache11DepIteratorE,
                          __ZN12pkgOrderList13OrderCompareAEPN8pkgCache7PackageES2_,
                          __ZN12pkgOrderList13OrderCompareBEPN8pkgCache7PackageES2_, __ZN12pkgOrderList13OrderCriticalEv,
                          __ZN12pkgOrderList13VisitProvidesEN8pkgCache11DepIteratorEb, __ZN12pkgOrderList14OrderConfigureEv,
                          __ZN12pkgOrderList14VisitRProvidesEMS_FbN8pkgCache11DepIteratorEENS0_11VerIteratorE,
                          __ZN12pkgOrderList5DoRunEv, __ZN12pkgOrderList5ScoreEN8pkgCache11PkgIteratorE,
                          __ZN12pkgOrderList7AddLoopEN8pkgCache11DepIteratorE,
                          __ZN12pkgOrderList7FileCmpEN8pkgCache11PkgIteratorES1_,
                          __ZN12pkgOrderList8CheckDepEN8pkgCache11DepIteratorE,
                          __ZN12pkgOrderList9DepRemoveEN8pkgCache11DepIteratorE,
                          __ZN12pkgOrderList9IsMissingEN8pkgCache11PkgIteratorE,
                          __ZN12pkgOrderList9VisitDepsEMS_FbN8pkgCache11DepIteratorEENS0_11PkgIteratorE,
                          __ZN12pkgOrderList9VisitNodeEN8pkgCache11PkgIteratorEPKc, __ZN12pkgOrderList9WipeFlagsEm,
                          __ZN12pkgOrderListC1EP11pkgDepCache, __ZN12pkgOrderListC2EP11pkgDepCache, __ZN12pkgOrderListD0Ev,
                          __ZN12pkgOrderListD1Ev, __ZN12pkgOrderListD2Ev, __ZN13Configuration11MoveSubTreeEPKcS1_,
                          __ZN13Configuration18MatchAgainstConfig13clearPatternsEv, __ZN13Configuration18MatchAgainstConfigC1EPKc,
                          __ZN13Configuration18MatchAgainstConfigC2EPKc, __ZN13Configuration18MatchAgainstConfigD0Ev,
                          __ZN13Configuration18MatchAgainstConfigD1Ev, __ZN13Configuration18MatchAgainstConfigD2Ev,
                          __ZN13Configuration3SetEPKcRKNSt3__112basic_stringIcNS2_11char_traitsIcEENS2_9allocatorIcEEEE,
                          __ZN13Configuration3SetEPKcRKi,
                          __ZN13Configuration4DumpERNSt3__113basic_ostreamIcNS0_11char_traitsIcEEEE,
                          __ZN13Configuration4DumpERNSt3__113basic_ostreamIcNS0_11char_traitsIcEEEEPKcS7_b,
                          __ZN13Configuration5ClearERKNSt3__112basic_stringIcNS0_11char_traitsIcEENS0_9allocatorIcEEEE,
                          __ZN13Configuration5ClearERKNSt3__112basic_stringIcNS0_11char_traitsIcEENS0_9allocatorIcEEEERKi,
                          __ZN13Configuration5ClearERKNSt3__112basic_stringIcNS0_11char_traitsIcEENS0_9allocatorIcEEEES8_,
                          __ZN13Configuration5ClearEv,
                          __ZN13Configuration6CndSetEPKcRKNSt3__112basic_stringIcNS2_11char_traitsIcEENS2_9allocatorIcEEEE,
                          __ZN13Configuration6CndSetEPKci, __ZN13Configuration6LookupEPKcRKb,
                          __ZN13Configuration6LookupEPNS_4ItemEPKcRKmRKb, __ZN13ConfigurationC1EPKNS_4ItemE,
                          __ZN13ConfigurationC1Ev, __ZN13ConfigurationC2EPKNS_4ItemE, __ZN13ConfigurationC2Ev,
                          __ZN13ConfigurationD1Ev, __ZN13ConfigurationD2Ev, __ZN13SHA1Summation3AddEPKhy,
                          __ZN13SHA1Summation6ResultEv, __ZN13SHA1SummationC1Ev, __ZN13SHA1SummationC2Ev,
                          __ZN13debListParser10NewVersionERN8pkgCache11VerIteratorE,
                          __ZN13debListParser10UsePackageERN8pkgCache11PkgIteratorERNS0_11VerIteratorE,
                          __ZN13debListParser11ParseStatusERN8pkgCache11PkgIteratorERNS0_11VerIteratorE,
                          __ZN13debListParser11SameVersionEtRKN8pkgCache11VerIteratorE, __ZN13debListParser11VersionHashEv,
                          __ZN13debListParser12ArchitectureEv,
                          __ZN13debListParser12ParseDependsEPKcS1_RN3APT10StringViewES4_Rjbbb,
                          __ZN13debListParser12ParseDependsEPKcS1_RNSt3__112basic_stringIcNS2_11char_traitsIcEENS2_9allocatorIcEEEES9_Rj,
                          __ZN13debListParser12ParseDependsEPKcS1_RNSt3__112basic_stringIcNS2_11char_traitsIcEENS2_9allocatorIcEEEES9_RjRKb,
                          __ZN13debListParser12ParseDependsEPKcS1_RNSt3__112basic_stringIcNS2_11char_traitsIcEENS2_9allocatorIcEEEES9_RjRKbSC_,
                          __ZN13debListParser12ParseDependsEPKcS1_RNSt3__112basic_stringIcNS2_11char_traitsIcEENS2_9allocatorIcEEEES9_RjRKbSC_SC_,
                          __ZN13debListParser12ParseDependsERN8pkgCache11VerIteratorEN13pkgTagSection3KeyEj,
                          __ZN13debListParser13ParseProvidesERN8pkgCache11VerIteratorE, __ZN13debListParser14ParseMultiArchEb,
                          __ZN13debListParser15ArchitectureAllEv, __ZN13debListParser15ConvertRelationEPKcRj,
                          __ZN13debListParser15Description_md5Ev, __ZN13debListParser29AvailableDescriptionLanguagesEv,
                          __ZN13debListParser4StepEv,
                          __ZN13debListParser7GetPrioENSt3__112basic_stringIcNS0_11char_traitsIcEENS0_9allocatorIcEEEE,
                          __ZN13debListParser7PackageEv, __ZN13debListParser7VersionEv,
                          __ZN13debListParser8GrabWordEN3APT10StringViewEPKNS_8WordListERh,
                          __ZN13debListParser8ParseTagERN8pkgCache11VerIteratorE, __ZN13debListParserC1EP6FileFd,
                          __ZN13debListParserC2EP6FileFd, __ZN13debListParserD0Ev, __ZN13debListParserD1Ev,
                          __ZN13debListParserD2Ev,
                          __ZN13edspLikeIndex12OpenListFileER6FileFdRKNSt3__112basic_stringIcNS2_11char_traitsIcEENS2_9allocatorIcEEEE,
                          __ZN13edspLikeIndexC2ERKNSt3__112basic_stringIcNS0_11char_traitsIcEENS0_9allocatorIcEEEE,
                          __ZN13edspLikeIndexD0Ev, __ZN13edspLikeIndexD1Ev, __ZN13edspLikeIndexD2Ev,
                          __ZN13pkgAcqArchive4DoneERKNSt3__112basic_stringIcNS0_11char_traitsIcEENS0_9allocatorIcEEEERK14HashStringListPKN10pkgAcquire12MethodConfigE,
                          __ZN13pkgAcqArchive6FailedERKNSt3__112basic_stringIcNS0_11char_traitsIcEENS0_9allocatorIcEEEEPKN10pkgAcquire12MethodConfigE,
                          __ZN13pkgAcqArchive8FinishedEv, __ZN13pkgAcqArchive9QueueNextEv,
                          __ZN13pkgAcqArchiveC1EP10pkgAcquireP13pkgSourceListP10pkgRecordsRKN8pkgCache11VerIteratorERNSt3__112basic_stringIcNSA_11char_traitsIcEENSA_9allocatorIcEEEE,
                          __ZN13pkgAcqArchiveC2EP10pkgAcquireP13pkgSourceListP10pkgRecordsRKN8pkgCache11VerIteratorERNSt3__112basic_stringIcNSA_11char_traitsIcEENSA_9allocatorIcEEEE,
                          __ZN13pkgAcqArchiveD0Ev, __ZN13pkgAcqArchiveD1Ev, __ZN13pkgAcqArchiveD2Ev,
                          __ZN13pkgAcqMetaSig4DoneERKNSt3__112basic_stringIcNS0_11char_traitsIcEENS0_9allocatorIcEEEERK14HashStringListPKN10pkgAcquire12MethodConfigE,
                          __ZN13pkgAcqMetaSig6FailedERKNSt3__112basic_stringIcNS0_11char_traitsIcEENS0_9allocatorIcEEEEPKN10pkgAcquire12MethodConfigE,
                          __ZN13pkgAcqMetaSigC1EP10pkgAcquireP18pkgAcqMetaClearSigRK11IndexTargetP15pkgAcqMetaIndex,
                          __ZN13pkgAcqMetaSigC2EP10pkgAcquireP18pkgAcqMetaClearSigRK11IndexTargetP15pkgAcqMetaIndex,
                          __ZN13pkgAcqMetaSigD0Ev, __ZN13pkgAcqMetaSigD1Ev, __ZN13pkgAcqMetaSigD2Ev,
                          __ZN13pkgSourceList10ReadAppendERKNSt3__112basic_stringIcNS0_11char_traitsIcEENS0_9allocatorIcEEEE,
                          __ZN13pkgSourceList12ReadMainListEv,
                          __ZN13pkgSourceList13ReadSourceDirERKNSt3__112basic_stringIcNS0_11char_traitsIcEENS0_9allocatorIcEEEE,
                          __ZN13pkgSourceList15AddVolatileFileEP12pkgIndexFile,
                          __ZN13pkgSourceList15AddVolatileFileERKNSt3__112basic_stringIcNS0_11char_traitsIcEENS0_9allocatorIcEEEE,
                          __ZN13pkgSourceList15AddVolatileFileERKNSt3__112basic_stringIcNS0_11char_traitsIcEENS0_9allocatorIcEEEEPNS0_6vectorIS6_NS4_IS6_EEEE,
                          __ZN13pkgSourceList15ParseFileDeb822ERKNSt3__112basic_stringIcNS0_11char_traitsIcEENS0_9allocatorIcEEEE,
                          __ZN13pkgSourceList16AddVolatileFilesER11CommandLinePNSt3__16vectorINS2_12basic_stringIcNS2_11char_traitsIcEENS2_9allocatorIcEEEENS7_IS9_EEEE,
                          __ZN13pkgSourceList16AddVolatileFilesER11CommandLinePNSt3__16vectorIPKcNS2_9allocatorIS5_EEEE,
                          __ZN13pkgSourceList17ParseFileOldStyleERKNSt3__112basic_stringIcNS0_11char_traitsIcEENS0_9allocatorIcEEEE,
                          __ZN13pkgSourceList19GetLastModifiedTimeEv,
                          __ZN13pkgSourceList4ReadERKNSt3__112basic_stringIcNS0_11char_traitsIcEENS0_9allocatorIcEEEE,
                          __ZN13pkgSourceList4Type10GlobalListE,
                          __ZN13pkgSourceList4Type11ParseStanzaERNSt3__16vectorIP9metaIndexNS1_9allocatorIS4_EEEER13pkgTagSectionjR6FileFd,
                          __ZN13pkgSourceList4Type13GlobalListLenE, __ZN13pkgSourceList4Type7GetTypeEPKc,
                          __ZN13pkgSourceList4TypeC2EPKcS2_, __ZN13pkgSourceList4TypeD0Ev, __ZN13pkgSourceList4TypeD1Ev,
                          __ZN13pkgSourceList4TypeD2Ev, __ZN13pkgSourceList5ResetEv, __ZN13pkgSourceListC1Ev,
                          __ZN13pkgSourceListC2Ev, __ZN13pkgSourceListD0Ev, __ZN13pkgSourceListD1Ev, __ZN13pkgSourceListD2Ev,
                          __ZN13pkgSrcRecords4FindEPKcRKb, __ZN13pkgSrcRecords4StepEv,
                          __ZN13pkgSrcRecords6Parser12BuildDepTypeERKh,
                          __ZN13pkgSrcRecords6Parser6Files2ERNSt3__16vectorINS_5File2ENS1_9allocatorIS3_EEEE,
                          __ZN13pkgSrcRecords6ParserC2EPK12pkgIndexFile, __ZN13pkgSrcRecords6ParserD0Ev,
                          __ZN13pkgSrcRecords6ParserD1Ev, __ZN13pkgSrcRecords6ParserD2Ev, __ZN13pkgSrcRecords7RestartEv,
                          __ZN13pkgSrcRecordsC1ER13pkgSourceList, __ZN13pkgSrcRecordsC2ER13pkgSourceList,
                          __ZN13pkgSrcRecordsD0Ev, __ZN13pkgSrcRecordsD1Ev, __ZN13pkgSrcRecordsD2Ev,
                          __ZN13pkgTagSection10TrimRecordEbRPKcb,
                          __ZN13pkgTagSection3Tag6RemoveERKNSt3__112basic_stringIcNS1_11char_traitsIcEENS1_9allocatorIcEEEE,
                          __ZN13pkgTagSection3Tag6RenameERKNSt3__112basic_stringIcNS1_11char_traitsIcEENS1_9allocatorIcEEEES9_,
                          __ZN13pkgTagSection3Tag7RewriteERKNSt3__112basic_stringIcNS1_11char_traitsIcEENS1_9allocatorIcEEEES9_,
                          __ZN13pkgTagSection4ScanEPKcmb, __ZN13pkgTagSection4TrimEv, __ZN13pkgTagSection8FindFlagERhhPKcS2_,
                          __ZN13pkgTagSection8FindFlagERmmPKcS2_, __ZN13pkgTagSectionC1Ev, __ZN13pkgTagSectionC2Ev,
                          __ZN13pkgTagSectionD0Ev, __ZN13pkgTagSectionD1Ev, __ZN13pkgTagSectionD2Ev,
                          __ZN14HashStringList8FileSizeEy, __ZN14HashStringList9push_backERK10HashString,
                          __ZN14HashStringList9supportedEPKc, __ZN14OpTextProgress4DoneEv, __ZN14OpTextProgress5WriteEPKc,
                          __ZN14OpTextProgress6UpdateEv, __ZN14OpTextProgressC1ER13Configuration,
                          __ZN14OpTextProgressC2ER13Configuration, __ZN14debStatusIndex16CreateListParserER6FileFd,
                          __ZN14debStatusIndexC1ERKNSt3__112basic_stringIcNS0_11char_traitsIcEENS0_9allocatorIcEEEE,
                          __ZN14debStatusIndexC2ERKNSt3__112basic_stringIcNS0_11char_traitsIcEENS0_9allocatorIcEEEE,
                          __ZN14debStatusIndexD0Ev, __ZN14debStatusIndexD1Ev, __ZN14debStatusIndexD2Ev,
                          __ZN14edspLikeSystem10InitializeER13Configuration, __ZN14edspLikeSystem16ArchiveSupportedEPKc,
                          __ZN14edspLikeSystem4LockEv, __ZN14edspLikeSystem5ScoreERK13Configuration,
                          __ZN14edspLikeSystem6UnLockEb, __ZN14edspLikeSystemC2EPKc, __ZN14edspLikeSystemD0Ev,
                          __ZN14edspLikeSystemD1Ev, __ZN14edspLikeSystemD2Ev,
                          __ZN14edspListParser11ParseStatusERN8pkgCache11PkgIteratorERNS0_11VerIteratorE,
                          __ZN14edspListParserC1EP6FileFd, __ZN14edspListParserC2EP6FileFd, __ZN14edspListParserD0Ev,
                          __ZN14edspListParserD1Ev, __ZN14edspListParserD2Ev,
                          __ZN14eippListParser11ParseStatusERN8pkgCache11PkgIteratorERNS0_11VerIteratorE,
                          __ZN14eippListParserC1EP6FileFd, __ZN14eippListParserC2EP6FileFd, __ZN14eippListParserD0Ev,
                          __ZN14eippListParserD1Ev, __ZN14eippListParserD2Ev,
                          __ZN14pkgAcqMetaBase12VerifyVendorERKNSt3__112basic_stringIcNS0_11char_traitsIcEENS0_9allocatorIcEEEE,
                          __ZN14pkgAcqMetaBase13CheckAuthDoneERKNSt3__112basic_stringIcNS0_11char_traitsIcEENS0_9allocatorIcEEEE,
                          __ZN14pkgAcqMetaBase16AbortTransactionEv,
                          __ZN14pkgAcqMetaBase16TransactionStateEN21pkgAcqTransactionItem17TransactionStatesE,
                          __ZN14pkgAcqMetaBase17CommitTransactionEv,
                          __ZN14pkgAcqMetaBase20TransactionStageCopyEP21pkgAcqTransactionItemRKNSt3__112basic_stringIcNS2_11char_traitsIcEENS2_9allocatorIcEEEESA_,
                          __ZN14pkgAcqMetaBase23CheckStopAuthenticationEPN10pkgAcquire4ItemERKNSt3__112basic_stringIcNS3_11char_traitsIcEENS3_9allocatorIcEEEE,
                          __ZN14pkgAcqMetaBase23QueueForSignatureVerifyEP21pkgAcqTransactionItemRKNSt3__112basic_stringIcNS2_11char_traitsIcEENS2_9allocatorIcEEEESA_,
                          __ZN14pkgAcqMetaBase23TransactionStageRemovalEP21pkgAcqTransactionItemRKNSt3__112basic_stringIcNS2_11char_traitsIcEENS2_9allocatorIcEEEE,
                          __ZN14pkgAcqMetaBase3AddEP21pkgAcqTransactionItem,
                          __ZN14pkgAcqMetaBase8QueueURIERN10pkgAcquire8ItemDescE,
                          __ZN14pkgAcqMetaBaseC1EP10pkgAcquireP18pkgAcqMetaClearSigRK11IndexTarget,
                          __ZN14pkgAcqMetaBaseC2EP10pkgAcquireP18pkgAcqMetaClearSigRK11IndexTarget, __ZN14pkgAcqMetaBaseD0Ev,
                          __ZN14pkgAcqMetaBaseD1Ev, __ZN14pkgAcqMetaBaseD2Ev, __ZN14pkgCdromStatusC2Ev,
                          __ZN14pkgCdromStatusD0Ev, __ZN14pkgCdromStatusD1Ev, __ZN14pkgCdromStatusD2Ev,
                          __ZN15debDscFileIndexC1ERKNSt3__112basic_stringIcNS0_11char_traitsIcEENS0_9allocatorIcEEEE,
                          __ZN15debDscFileIndexC2ERKNSt3__112basic_stringIcNS0_11char_traitsIcEENS0_9allocatorIcEEEE,
                          __ZN15debDscFileIndexD0Ev, __ZN15debDscFileIndexD1Ev, __ZN15debDscFileIndexD2Ev,
                          __ZN15debRecordParser4JumpERKN8pkgCache15VerFileIteratorE,
                          __ZN15debRecordParser4JumpERKN8pkgCache16DescFileIteratorE,
                          __ZN15debRecordParserC1ENSt3__112basic_stringIcNS0_11char_traitsIcEENS0_9allocatorIcEEEER8pkgCache,
                          __ZN15debRecordParserC2ENSt3__112basic_stringIcNS0_11char_traitsIcEENS0_9allocatorIcEEEER8pkgCache,
                          __ZN15debRecordParserD0Ev, __ZN15debRecordParserD1Ev, __ZN15debRecordParserD2Ev,
                          __ZN15debReleaseIndex10GetIndexesEP10pkgAcquireRKb,
                          __ZN15debReleaseIndex10SetTrustedEN9metaIndex8TriStateE,
                          __ZN15debReleaseIndex11SetSignedByERKNSt3__112basic_stringIcNS0_11char_traitsIcEENS0_9allocatorIcEEEE,
                          __ZN15debReleaseIndex12AddComponentERKNSt3__112basic_stringIcNS0_11char_traitsIcEENS0_9allocatorIcEEEEbS8_RKNS0_6vectorIS6_NS4_IS6_EEEESD_SB_bS8_,
                          __ZN15debReleaseIndex12parseSumDataERPKcS1_RNSt3__112basic_stringIcNS3_11char_traitsIcEENS3_9allocatorIcEEEESA_Ry,
                          __ZN15debReleaseIndex13GetIndexFilesEv, __ZN15debReleaseIndex16SetValidUntilMaxEl,
                          __ZN15debReleaseIndex16SetValidUntilMinEl, __ZN15debReleaseIndex17GetReleaseOptionsEv,
                          __ZN15debReleaseIndex18SetCheckValidUntilEN9metaIndex8TriStateE,
                          __ZN15debReleaseIndex4LoadERKNSt3__112basic_stringIcNS0_11char_traitsIcEENS0_9allocatorIcEEEEPS6_,
                          __ZN15debReleaseIndexC1ERKNSt3__112basic_stringIcNS0_11char_traitsIcEENS0_9allocatorIcEEEES8_RKNS0_3mapIS6_S6_NS0_4lessIS6_EENS4_INS0_4pairIS7_S6_EEEEEE,
                          __ZN15debReleaseIndexC1ERKNSt3__112basic_stringIcNS0_11char_traitsIcEENS0_9allocatorIcEEEES8_bRKNS0_3mapIS6_S6_NS0_4lessIS6_EENS4_INS0_4pairIS7_S6_EEEEEE,
                          __ZN15debReleaseIndexC2ERKNSt3__112basic_stringIcNS0_11char_traitsIcEENS0_9allocatorIcEEEES8_RKNS0_3mapIS6_S6_NS0_4lessIS6_EENS4_INS0_4pairIS7_S6_EEEEEE,
                          __ZN15debReleaseIndexC2ERKNSt3__112basic_stringIcNS0_11char_traitsIcEENS0_9allocatorIcEEEES8_bRKNS0_3mapIS6_S6_NS0_4lessIS6_EENS4_INS0_4pairIS7_S6_EEEEEE,
                          __ZN15debReleaseIndexD0Ev, __ZN15debReleaseIndexD1Ev, __ZN15debReleaseIndexD2Ev,
                          __ZN15debSourcesIndex12OpenListFileER6FileFdRKNSt3__112basic_stringIcNS2_11char_traitsIcEENS2_9allocatorIcEEEE,
                          __ZN15debSourcesIndex16CreateListParserER6FileFd, __ZN15debSourcesIndexC1ERK11IndexTargetb,
                          __ZN15debSourcesIndexC2ERK11IndexTargetb, __ZN15debSourcesIndexD0Ev, __ZN15debSourcesIndexD1Ev,
                          __ZN15debSourcesIndexD2Ev,
                          __ZN15pkgAcqBaseIndex6FailedERKNSt3__112basic_stringIcNS0_11char_traitsIcEENS0_9allocatorIcEEEEPKN10pkgAcquire12MethodConfigE,
                          __ZN15pkgAcqBaseIndexC1EP10pkgAcquireP18pkgAcqMetaClearSigRK11IndexTarget,
                          __ZN15pkgAcqBaseIndexC2EP10pkgAcquireP18pkgAcqMetaClearSigRK11IndexTarget, __ZN15pkgAcqBaseIndexD0Ev,
                          __ZN15pkgAcqBaseIndexD1Ev, __ZN15pkgAcqBaseIndexD2Ev,
                          __ZN15pkgAcqChangelog11URITemplateERKN8pkgCache15RlsFileIteratorE,
                          __ZN15pkgAcqChangelog3URIERKN8pkgCache11VerIteratorE,
                          __ZN15pkgAcqChangelog3URIERKN8pkgCache15RlsFileIteratorEPKcS5_S5_,
                          __ZN15pkgAcqChangelog3URIERKNSt3__112basic_stringIcNS0_11char_traitsIcEENS0_9allocatorIcEEEEPKcSA_SA_,
                          __ZN15pkgAcqChangelog4DoneERKNSt3__112basic_stringIcNS0_11char_traitsIcEENS0_9allocatorIcEEEERK14HashStringListPKN10pkgAcquire12MethodConfigE,
                          __ZN15pkgAcqChangelog4InitERKNSt3__112basic_stringIcNS0_11char_traitsIcEENS0_9allocatorIcEEEES8_,
                          __ZN15pkgAcqChangelog6FailedERKNSt3__112basic_stringIcNS0_11char_traitsIcEENS0_9allocatorIcEEEEPKN10pkgAcquire12MethodConfigE,
                          __ZN15pkgAcqChangelogC1EP10pkgAcquireRKN8pkgCache11VerIteratorERKNSt3__112basic_stringIcNS6_11char_traitsIcEENS6_9allocatorIcEEEESE_,
                          __ZN15pkgAcqChangelogC1EP10pkgAcquireRKN8pkgCache15RlsFileIteratorEPKcS7_S7_RKNSt3__112basic_stringIcNS8_11char_traitsIcEENS8_9allocatorIcEEEESG_,
                          __ZN15pkgAcqChangelogC1EP10pkgAcquireRKNSt3__112basic_stringIcNS2_11char_traitsIcEENS2_9allocatorIcEEEEPKcSC_SA_SA_,
                          __ZN15pkgAcqChangelogC2EP10pkgAcquireRKN8pkgCache11VerIteratorERKNSt3__112basic_stringIcNS6_11char_traitsIcEENS6_9allocatorIcEEEESE_,
                          __ZN15pkgAcqChangelogC2EP10pkgAcquireRKN8pkgCache15RlsFileIteratorEPKcS7_S7_RKNSt3__112basic_stringIcNS8_11char_traitsIcEENS8_9allocatorIcEEEESG_,
                          __ZN15pkgAcqChangelogC2EP10pkgAcquireRKNSt3__112basic_stringIcNS2_11char_traitsIcEENS2_9allocatorIcEEEEPKcSC_SA_SA_,
                          __ZN15pkgAcqChangelogD0Ev, __ZN15pkgAcqChangelogD1Ev, __ZN15pkgAcqChangelogD2Ev,
                          __ZN15pkgAcqDiffIndex14ParseDiffIndexERKNSt3__112basic_stringIcNS0_11char_traitsIcEENS0_9allocatorIcEEEE,
                          __ZN15pkgAcqDiffIndex16TransactionStateEN21pkgAcqTransactionItem17TransactionStatesE,
                          __ZN15pkgAcqDiffIndex4DoneERKNSt3__112basic_stringIcNS0_11char_traitsIcEENS0_9allocatorIcEEEERK14HashStringListPKN10pkgAcquire12MethodConfigE,
                          __ZN15pkgAcqDiffIndex6FailedERKNSt3__112basic_stringIcNS0_11char_traitsIcEENS0_9allocatorIcEEEEPKN10pkgAcquire12MethodConfigE,
                          __ZN15pkgAcqDiffIndex8QueueURIERN10pkgAcquire8ItemDescE,
                          __ZN15pkgAcqDiffIndexC1EP10pkgAcquireP18pkgAcqMetaClearSigRK11IndexTarget,
                          __ZN15pkgAcqDiffIndexC2EP10pkgAcquireP18pkgAcqMetaClearSigRK11IndexTarget, __ZN15pkgAcqDiffIndexD0Ev,
                          __ZN15pkgAcqDiffIndexD1Ev, __ZN15pkgAcqDiffIndexD2Ev,
                          __ZN15pkgAcqMetaIndex4DoneERKNSt3__112basic_stringIcNS0_11char_traitsIcEENS0_9allocatorIcEEEERK14HashStringListPKN10pkgAcquire12MethodConfigE,
                          __ZN15pkgAcqMetaIndex6FailedERKNSt3__112basic_stringIcNS0_11char_traitsIcEENS0_9allocatorIcEEEEPKN10pkgAcquire12MethodConfigE,
                          __ZN15pkgAcqMetaIndexC1EP10pkgAcquireP18pkgAcqMetaClearSigRK11IndexTargetS6_,
                          __ZN15pkgAcqMetaIndexC2EP10pkgAcquireP18pkgAcqMetaClearSigRK11IndexTargetS6_, __ZN15pkgAcqMetaIndexD0Ev,
                          __ZN15pkgAcqMetaIndexD1Ev, __ZN15pkgAcqMetaIndexD2Ev,
                          __ZN15pkgVersionMatch14VersionMatchesEN8pkgCache11VerIteratorE,
                          __ZN15pkgVersionMatch17ExpressionMatchesEPKcS1_,
                          __ZN15pkgVersionMatch17ExpressionMatchesERKNSt3__112basic_stringIcNS0_11char_traitsIcEENS0_9allocatorIcEEEEPKc,
                          __ZN15pkgVersionMatch4FindEN8pkgCache11PkgIteratorE,
                          __ZN15pkgVersionMatch8MatchVerEPKcNSt3__112basic_stringIcNS2_11char_traitsIcEENS2_9allocatorIcEEEEb,
                          __ZN15pkgVersionMatch9FileMatchEN8pkgCache15PkgFileIteratorE,
                          __ZN15pkgVersionMatchC1ENSt3__112basic_stringIcNS0_11char_traitsIcEENS0_9allocatorIcEEEENS_9MatchTypeE,
                          __ZN15pkgVersionMatchC2ENSt3__112basic_stringIcNS0_11char_traitsIcEENS0_9allocatorIcEEEENS_9MatchTypeE,
                          __ZN16TranslationsCopy16CopyTranslationsENSt3__112basic_stringIcNS0_11char_traitsIcEENS0_9allocatorIcEEEES6_RNS0_6vectorIS6_NS4_IS6_EEEEP14pkgCdromStatus,
                          __ZN16TranslationsCopyC1Ev, __ZN16TranslationsCopyC2Ev, __ZN16TranslationsCopyD0Ev,
                          __ZN16TranslationsCopyD1Ev, __ZN16TranslationsCopyD2Ev,
                          __ZN16debDebFileParser10UsePackageERN8pkgCache11PkgIteratorERNS0_11VerIteratorE,
                          __ZN16debDebFileParserC1EP6FileFdRKNSt3__112basic_stringIcNS2_11char_traitsIcEENS2_9allocatorIcEEEE,
                          __ZN16debDebFileParserC2EP6FileFdRKNSt3__112basic_stringIcNS2_11char_traitsIcEENS2_9allocatorIcEEEE,
                          __ZN16debPackagesIndexC1ERK11IndexTargetb, __ZN16debPackagesIndexC2ERK11IndexTargetb,
                          __ZN16debPackagesIndexD0Ev, __ZN16debPackagesIndexD1Ev, __ZN16debPackagesIndexD2Ev,
                          __ZN16pkgAcqIndexDiffs13QueueNextDiffEv,
                          __ZN16pkgAcqIndexDiffs4DoneERKNSt3__112basic_stringIcNS0_11char_traitsIcEENS0_9allocatorIcEEEERK14HashStringListPKN10pkgAcquire12MethodConfigE,
                          __ZN16pkgAcqIndexDiffs6FailedERKNSt3__112basic_stringIcNS0_11char_traitsIcEENS0_9allocatorIcEEEEPKN10pkgAcquire12MethodConfigE,
                          __ZN16pkgAcqIndexDiffs6FinishEb,
                          __ZN16pkgAcqIndexDiffsC1EP10pkgAcquireP18pkgAcqMetaClearSigRK11IndexTargetRKNSt3__112basic_stringIcNS7_11char_traitsIcEENS7_9allocatorIcEEEESF_RKNS7_6vectorI8DiffInfoNSB_ISH_EEEE,
                          __ZN16pkgAcqIndexDiffsC2EP10pkgAcquireP18pkgAcqMetaClearSigRK11IndexTargetRKNSt3__112basic_stringIcNS7_11char_traitsIcEENS7_9allocatorIcEEEESF_RKNS7_6vectorI8DiffInfoNSB_ISH_EEEE,
                          __ZN16pkgAcqIndexDiffsD0Ev, __ZN16pkgAcqIndexDiffsD1Ev, __ZN16pkgAcqIndexDiffsD2Ev,
                          __ZN16pkgAcquireStatus4StopEv, __ZN16pkgAcquireStatus5PulseEP10pkgAcquire,
                          __ZN16pkgAcquireStatus5StartEv, __ZN16pkgAcquireStatus7FetchedEyy, __ZN16pkgAcquireStatusC2Ev,
                          __ZN16pkgAcquireStatusD0Ev, __ZN16pkgAcquireStatusD1Ev, __ZN16pkgAcquireStatusD2Ev,
                          __ZN17pkgArchiveCleaner2GoENSt3__112basic_stringIcNS0_11char_traitsIcEENS0_9allocatorIcEEEER8pkgCache,
                          __ZN17pkgArchiveCleanerC1Ev, __ZN17pkgArchiveCleanerC2Ev, __ZN17pkgArchiveCleanerD0Ev,
                          __ZN17pkgArchiveCleanerD1Ev, __ZN17pkgArchiveCleanerD2Ev,
                          __ZN17pkgCacheGenerator10NewDependsERN8pkgCache11PkgIteratorERNS0_11VerIteratorEjhhRPj,
                          __ZN17pkgCacheGenerator10NewFileVerERN8pkgCache11VerIteratorER18pkgCacheListParser,
                          __ZN17pkgCacheGenerator10NewPackageERN8pkgCache11PkgIteratorEN3APT10StringViewES4_,
                          __ZN17pkgCacheGenerator10NewVersionERN8pkgCache11VerIteratorERKN3APT10StringViewEjtj,
                          __ZN17pkgCacheGenerator10SelectFileERKNSt3__112basic_stringIcNS0_11char_traitsIcEENS0_9allocatorIcEEEERK12pkgIndexFileS8_S8_m,
                          __ZN17pkgCacheGenerator11NewFileDescERN8pkgCache12DescIteratorER18pkgCacheListParser,
                          __ZN17pkgCacheGenerator11NewProvidesERN8pkgCache11VerIteratorERNS0_11PkgIteratorEjh,
                          __ZN17pkgCacheGenerator11StoreStringENS_10StringTypeEPKcj, __ZN17pkgCacheGenerator13AllocateInMapERKm,
                          __ZN17pkgCacheGenerator14MergeListGroupER18pkgCacheListParserRKNSt3__112basic_stringIcNS2_11char_traitsIcEENS2_9allocatorIcEEEE,
                          __ZN17pkgCacheGenerator14NewDescriptionERN8pkgCache12DescIteratorERKNSt3__112basic_stringIcNS3_11char_traitsIcEENS3_9allocatorIcEEEEN3APT10StringViewEj,
                          __ZN17pkgCacheGenerator15MakeStatusCacheER13pkgSourceListP10OpProgressPP4MMapPP8pkgCacheb,
                          __ZN17pkgCacheGenerator15MakeStatusCacheER13pkgSourceListP10OpProgressPP4MMapb,
                          __ZN17pkgCacheGenerator16MergeListPackageER18pkgCacheListParserRN8pkgCache11PkgIteratorE,
                          __ZN17pkgCacheGenerator16MergeListVersionER18pkgCacheListParserRN8pkgCache11PkgIteratorERKN3APT10StringViewERPNS2_11VerIteratorE,
                          __ZN17pkgCacheGenerator16WriteStringInMapEPKc, __ZN17pkgCacheGenerator16WriteStringInMapEPKcRKm,
                          __ZN17pkgCacheGenerator17AddNewDescriptionER18pkgCacheListParserRN8pkgCache11VerIteratorERKNSt3__112basic_stringIcNS5_11char_traitsIcEENS5_9allocatorIcEEEEN3APT10StringViewERj,
                          __ZN17pkgCacheGenerator17SelectReleaseFileERKNSt3__112basic_stringIcNS0_11char_traitsIcEENS0_9allocatorIcEEEES8_m,
                          __ZN17pkgCacheGenerator18AddImplicitDependsERN8pkgCache11GrpIteratorERNS0_11PkgIteratorERNS0_11VerIteratorE,
                          __ZN17pkgCacheGenerator18AddImplicitDependsERN8pkgCache11VerIteratorERNS0_11PkgIteratorE,
                          __ZN17pkgCacheGenerator19MakeOnlyStatusCacheEP10OpProgressPP11DynamicMMap,
                          __ZN17pkgCacheGenerator5ReMapEPKvS1_m, __ZN17pkgCacheGenerator5StartEv,
                          __ZN17pkgCacheGenerator6NewTagERN8pkgCache11VerIteratorEPKcj,
                          __ZN17pkgCacheGenerator8NewGroupERN8pkgCache11GrpIteratorEN3APT10StringViewE,
                          __ZN17pkgCacheGenerator9MergeListER18pkgCacheListParserPN8pkgCache11VerIteratorE,
                          __ZN17pkgCacheGeneratorC1EP11DynamicMMapP10OpProgress,
                          __ZN17pkgCacheGeneratorC2EP11DynamicMMapP10OpProgress, __ZN17pkgCacheGeneratorD0Ev,
                          __ZN17pkgCacheGeneratorD1Ev, __ZN17pkgCacheGeneratorD2Ev, __ZN17pkgPackageManager10FixMissingEv,
                          __ZN17pkgPackageManager10SigINTStopE, __ZN17pkgPackageManager11EarlyRemoveEN8pkgCache11PkgIteratorE,
                          __ZN17pkgPackageManager11EarlyRemoveEN8pkgCache11PkgIteratorEPKNS0_11DepIteratorE,
                          __ZN17pkgPackageManager11GetArchivesEP10pkgAcquireP13pkgSourceListP10pkgRecords,
                          __ZN17pkgPackageManager11SmartRemoveEN8pkgCache11PkgIteratorE,
                          __ZN17pkgPackageManager11SmartUnPackEN8pkgCache11PkgIteratorE,
                          __ZN17pkgPackageManager11SmartUnPackEN8pkgCache11PkgIteratorEbi,
                          __ZN17pkgPackageManager12CheckRBreaksERKN8pkgCache11PkgIteratorENS0_11DepIteratorEPKc,
                          __ZN17pkgPackageManager12ConfigureAllEv,
                          __ZN17pkgPackageManager12ImmediateAddEN8pkgCache11PkgIteratorEbRKj,
                          __ZN17pkgPackageManager12OrderInstallEv,
                          __ZN17pkgPackageManager13DepAlwaysTrueEN8pkgCache11DepIteratorE,
                          __ZN17pkgPackageManager14SmartConfigureEN8pkgCache11PkgIteratorEi,
                          __ZN17pkgPackageManager15CheckRConflictsEN8pkgCache11PkgIteratorENS0_11DepIteratorEPKc,
                          __ZN17pkgPackageManager15CreateOrderListEv,
                          __ZN17pkgPackageManager15NonLoopingSmartENS_11SmartActionERN8pkgCache11PkgIteratorES2_ibPbS4_,
                          __ZN17pkgPackageManager17DoInstallPostForkEPN3APT8Progress14PackageManagerE,
                          __ZN17pkgPackageManager17DoInstallPostForkEi,
                          __ZN17pkgPackageManager9DoInstallEPN3APT8Progress14PackageManagerE, __ZN17pkgPackageManager9DoInstallEi,
                          __ZN17pkgPackageManagerC1EP11pkgDepCache, __ZN17pkgPackageManagerC2EP11pkgDepCache,
                          __ZN17pkgPackageManagerD0Ev, __ZN17pkgPackageManagerD1Ev, __ZN17pkgPackageManagerD2Ev,
                          __ZN18debDebPkgFileIndex10GetContentERNSt3__113basic_ostreamIcNS0_11char_traitsIcEEEERKNS0_12basic_stringIcS3_NS0_9allocatorIcEEEE,
                          __ZN18debDebPkgFileIndex12OpenListFileER6FileFdRKNSt3__112basic_stringIcNS2_11char_traitsIcEENS2_9allocatorIcEEEE,
                          __ZN18debDebPkgFileIndex16CreateListParserER6FileFd,
                          __ZN18debDebPkgFileIndexC1ERKNSt3__112basic_stringIcNS0_11char_traitsIcEENS0_9allocatorIcEEEE,
                          __ZN18debDebPkgFileIndexC2ERKNSt3__112basic_stringIcNS0_11char_traitsIcEENS0_9allocatorIcEEEE,
                          __ZN18debDebPkgFileIndexD0Ev, __ZN18debDebPkgFileIndexD1Ev, __ZN18debDebPkgFileIndexD2Ev,
                          __ZN18debDscRecordParserC1ERKNSt3__112basic_stringIcNS0_11char_traitsIcEENS0_9allocatorIcEEEEPK12pkgIndexFile,
                          __ZN18debDscRecordParserC2ERKNSt3__112basic_stringIcNS0_11char_traitsIcEENS0_9allocatorIcEEEEPK12pkgIndexFile,
                          __ZN18debSrcRecordParser12BuildDependsERNSt3__16vectorIN13pkgSrcRecords6Parser11BuildDepRecENS0_9allocatorIS4_EEEERKbSA_,
                          __ZN18debSrcRecordParser5FilesERNSt3__16vectorIN13pkgSrcRecords4FileENS0_9allocatorIS3_EEEE,
                          __ZN18debSrcRecordParser6Files2ERNSt3__16vectorIN13pkgSrcRecords5File2ENS0_9allocatorIS3_EEEE,
                          __ZN18debSrcRecordParser8BinariesEv,
                          __ZN18debSrcRecordParserC1ERKNSt3__112basic_stringIcNS0_11char_traitsIcEENS0_9allocatorIcEEEEPK12pkgIndexFile,
                          __ZN18debSrcRecordParserC2ERKNSt3__112basic_stringIcNS0_11char_traitsIcEENS0_9allocatorIcEEEEPK12pkgIndexFile,
                          __ZN18debSrcRecordParserD0Ev, __ZN18debSrcRecordParserD1Ev, __ZN18debSrcRecordParserD2Ev,
                          __ZN18edspLikeListParser10NewVersionERN8pkgCache11VerIteratorE, __ZN18edspLikeListParser11VersionHashEv,
                          __ZN18edspLikeListParser15Description_md5Ev,
                          __ZN18edspLikeListParser15LoadReleaseInfoERN8pkgCache15RlsFileIteratorER6FileFdRKNSt3__112basic_stringIcNS5_11char_traitsIcEENS5_9allocatorIcEEEE,
                          __ZN18edspLikeListParser29AvailableDescriptionLanguagesEv, __ZN18edspLikeListParserC1EP6FileFd,
                          __ZN18edspLikeListParserC2EP6FileFd, __ZN18edspLikeListParserD0Ev, __ZN18edspLikeListParserD1Ev,
                          __ZN18edspLikeListParserD2Ev,
                          __ZN18pkgAcqMetaClearSig10VerifyDoneERKNSt3__112basic_stringIcNS0_11char_traitsIcEENS0_9allocatorIcEEEEPKN10pkgAcquire12MethodConfigE,
                          __ZN18pkgAcqMetaClearSig12QueueIndexesEb,
                          __ZN18pkgAcqMetaClearSig4DoneERKNSt3__112basic_stringIcNS0_11char_traitsIcEENS0_9allocatorIcEEEERK14HashStringListPKN10pkgAcquire12MethodConfigE,
                          __ZN18pkgAcqMetaClearSig6FailedERKNSt3__112basic_stringIcNS0_11char_traitsIcEENS0_9allocatorIcEEEEPKN10pkgAcquire12MethodConfigE,
                          __ZN18pkgAcqMetaClearSig8FinishedEv,
                          __ZN18pkgAcqMetaClearSigC1EP10pkgAcquireRK11IndexTargetS4_S4_P9metaIndex,
                          __ZN18pkgAcqMetaClearSigC2EP10pkgAcquireRK11IndexTargetS4_S4_P9metaIndex, __ZN18pkgAcqMetaClearSigD0Ev,
                          __ZN18pkgAcqMetaClearSigD1Ev, __ZN18pkgAcqMetaClearSigD2Ev,
                          __ZN18pkgCacheListParser10NewDependsERN8pkgCache11VerIteratorEN3APT10StringViewES4_S4_hh,
                          __ZN18pkgCacheListParser11NewProvidesERN8pkgCache11VerIteratorEN3APT10StringViewES4_S4_h,
                          __ZN18pkgCacheListParser11SameVersionEtRKN8pkgCache11VerIteratorE,
                          __ZN18pkgCacheListParser18NewProvidesAllArchERN8pkgCache11VerIteratorEN3APT10StringViewES4_h,
                          __ZN18pkgCacheListParser6NewTagERN8pkgCache11VerIteratorEPKcj, __ZN18pkgCacheListParserC2Ev,
                          __ZN18pkgCacheListParserD0Ev, __ZN18pkgCacheListParserD1Ev, __ZN18pkgCacheListParserD2Ev,
                          __ZN18pkgDebianIndexFile16CreateListParserER6FileFd,
                          __ZN18pkgDebianIndexFile5MergeER17pkgCacheGeneratorP10OpProgress, __ZN18pkgDebianIndexFileC2Eb,
                          __ZN18pkgDebianIndexFileD0Ev, __ZN18pkgDebianIndexFileD1Ev, __ZN18pkgDebianIndexFileD2Ev,
                          __ZN18pkgProblemResolver10MakeScoresEv, __ZN18pkgProblemResolver13ResolveByKeepEP10OpProgress,
                          __ZN18pkgProblemResolver14InstallProtectEv, __ZN18pkgProblemResolver15ResolveInternalEb,
                          __ZN18pkgProblemResolver21InstOrNewPolicyBrokenEN8pkgCache11PkgIteratorE,
                          __ZN18pkgProblemResolver21ResolveByKeepInternalEv, __ZN18pkgProblemResolver7ResolveEbP10OpProgress,
                          __ZN18pkgProblemResolver9DoUpgradeEN8pkgCache11PkgIteratorE,
                          __ZN18pkgProblemResolver9ScoreSortEPKN8pkgCache7PackageES3_, __ZN18pkgProblemResolverC1EP11pkgDepCache,
                          __ZN18pkgProblemResolverC2EP11pkgDepCache, __ZN18pkgProblemResolverD0Ev, __ZN18pkgProblemResolverD1Ev,
                          __ZN18pkgProblemResolverD2Ev, __ZN19debRecordParserBase10MaintainerEv,
                          __ZN19debRecordParserBase11RecordFieldEPKc, __ZN19debRecordParserBase4FindEPKcRS1_S2_,
                          __ZN19debRecordParserBase4NameEv, __ZN19debRecordParserBase6GetRecERPKcS2_,
                          __ZN19debRecordParserBase7DisplayEv, __ZN19debRecordParserBase8FileNameEv,
                          __ZN19debRecordParserBase8HomepageEv,
                          __ZN19debRecordParserBase8LongDescERKNSt3__112basic_stringIcNS0_11char_traitsIcEENS0_9allocatorIcEEEE,
                          __ZN19debRecordParserBase9ShortDescERKNSt3__112basic_stringIcNS0_11char_traitsIcEENS0_9allocatorIcEEEE,
                          __ZN19debRecordParserBase9SourcePkgEv, __ZN19debRecordParserBase9SourceVerEv,
                          __ZN19debRecordParserBaseC2Ev, __ZN19debRecordParserBaseD0Ev, __ZN19debRecordParserBaseD1Ev,
                          __ZN19debRecordParserBaseD2Ev,
                          __ZN19debStatusListParser11ParseStatusERN8pkgCache11PkgIteratorERNS0_11VerIteratorE,
                          __ZN19debVersioningSystem11CmpFragmentEPKcS1_S1_S1_,
                          __ZN19debVersioningSystem12DoCmpVersionEPKcS1_S1_S1_, __ZN19debVersioningSystem15UpstreamVersionEPKc,
                          __ZN19debVersioningSystem8CheckDepEPKciS1_, __ZN19debVersioningSystemC1Ev,
                          __ZN19debVersioningSystemC2Ev, __ZN19pkgUdevCdromDevices16ScanForRemovableEb,
                          __ZN19pkgUdevCdromDevices4ScanEv, __ZN19pkgUdevCdromDevices6DlopenEv, __ZN19pkgUdevCdromDevicesC1Ev,
                          __ZN19pkgUdevCdromDevicesC2Ev, __ZN19pkgUdevCdromDevicesD0Ev, __ZN19pkgUdevCdromDevicesD1Ev,
                          __ZN19pkgUdevCdromDevicesD2Ev, __ZN19pkgVersioningSystem10GlobalListE,
                          __ZN19pkgVersioningSystem13GlobalListLenE, __ZN19pkgVersioningSystem5GetVSEPKc,
                          __ZN19pkgVersioningSystemC2Ev, __ZN19pkgVersioningSystemD0Ev, __ZN19pkgVersioningSystemD1Ev,
                          __ZN19pkgVersioningSystemD2Ev,
                          __ZN20debTranslationsIndex12OpenListFileER6FileFdRKNSt3__112basic_stringIcNS2_11char_traitsIcEENS2_9allocatorIcEEEE,
                          __ZN20debTranslationsIndex16CreateListParserER6FileFd, __ZN20debTranslationsIndexC1ERK11IndexTarget,
                          __ZN20debTranslationsIndexC2ERK11IndexTarget, __ZN20debTranslationsIndexD0Ev,
                          __ZN20debTranslationsIndexD1Ev, __ZN20debTranslationsIndexD2Ev,
                          __ZN21debStringPackageIndexC1ERKNSt3__112basic_stringIcNS0_11char_traitsIcEENS0_9allocatorIcEEEE,
                          __ZN21debStringPackageIndexC2ERKNSt3__112basic_stringIcNS0_11char_traitsIcEENS0_9allocatorIcEEEE,
                          __ZN21debStringPackageIndexD0Ev, __ZN21debStringPackageIndexD1Ev, __ZN21debStringPackageIndexD2Ev,
                          __ZN21pkgAcqIndexMergeDiffs4DoneERKNSt3__112basic_stringIcNS0_11char_traitsIcEENS0_9allocatorIcEEEERK14HashStringListPKN10pkgAcquire12MethodConfigE,
                          __ZN21pkgAcqIndexMergeDiffs6FailedERKNSt3__112basic_stringIcNS0_11char_traitsIcEENS0_9allocatorIcEEEEPKN10pkgAcquire12MethodConfigE,
                          __ZN21pkgAcqIndexMergeDiffsC1EP10pkgAcquireP18pkgAcqMetaClearSigRK11IndexTargetRKNSt3__112basic_stringIcNS7_11char_traitsIcEENS7_9allocatorIcEEEESF_RK8DiffInfoPKNS7_6vectorIPS_NSB_ISK_EEEE,
                          __ZN21pkgAcqIndexMergeDiffsC2EP10pkgAcquireP18pkgAcqMetaClearSigRK11IndexTargetRKNSt3__112basic_stringIcNS7_11char_traitsIcEENS7_9allocatorIcEEEESF_RK8DiffInfoPKNS7_6vectorIPS_NSB_ISK_EEEE,
                          __ZN21pkgAcqIndexMergeDiffsD0Ev, __ZN21pkgAcqIndexMergeDiffsD1Ev, __ZN21pkgAcqIndexMergeDiffsD2Ev,
                          __ZN21pkgAcqTransactionItem16TransactionStateENS_17TransactionStatesE,
                          __ZN21pkgAcqTransactionItem8QueueURIERN10pkgAcquire8ItemDescE,
                          __ZN21pkgAcqTransactionItemC1EP10pkgAcquireP18pkgAcqMetaClearSigRK11IndexTarget,
                          __ZN21pkgAcqTransactionItemC2EP10pkgAcquireP18pkgAcqMetaClearSigRK11IndexTarget,
                          __ZN21pkgAcqTransactionItemD0Ev, __ZN21pkgAcqTransactionItemD1Ev, __ZN21pkgAcqTransactionItemD2Ev,
                          __ZN22debDebFileRecordParser11LoadContentEv,
                          __ZN22debDebFileRecordParser4JumpERKN8pkgCache15VerFileIteratorE,
                          __ZN22debDebFileRecordParser4JumpERKN8pkgCache16DescFileIteratorE,
                          __ZN22debDebFileRecordParser8FileNameEv,
                          __ZN22debDebFileRecordParserC1ENSt3__112basic_stringIcNS0_11char_traitsIcEENS0_9allocatorIcEEEE,
                          __ZN22debDebFileRecordParserC2ENSt3__112basic_stringIcNS0_11char_traitsIcEENS0_9allocatorIcEEEE,
                          __ZN22debDebFileRecordParserD0Ev, __ZN22debDebFileRecordParserD1Ev, __ZN22debDebFileRecordParserD2Ev,
                          __ZN22pkgDebianIndexRealFile12OpenListFileER6FileFdRKNSt3__112basic_stringIcNS2_11char_traitsIcEENS2_9allocatorIcEEEE,
                          __ZN22pkgDebianIndexRealFileC2ERKNSt3__112basic_stringIcNS0_11char_traitsIcEENS0_9allocatorIcEEEEb,
                          __ZN22pkgDebianIndexRealFileD0Ev, __ZN22pkgDebianIndexRealFileD1Ev, __ZN22pkgDebianIndexRealFileD2Ev,
                          __ZN23SummationImplementation5AddFDER6FileFdy, __ZN23SummationImplementation5AddFDEiy,
                          __ZN24pkgDebianIndexTargetFile12OpenListFileER6FileFdRKNSt3__112basic_stringIcNS2_11char_traitsIcEENS2_9allocatorIcEEEE,
                          __ZN24pkgDebianIndexTargetFileC2ERK11IndexTargetb, __ZN24pkgDebianIndexTargetFileD0Ev,
                          __ZN24pkgDebianIndexTargetFileD1Ev, __ZN24pkgDebianIndexTargetFileD2Ev,
                          __ZN3APT11CacheFilter10ANDMatcher3ANDEPNS0_7MatcherE,
                          __ZN3APT11CacheFilter10ANDMatcherC1EPNS0_7MatcherE,
                          __ZN3APT11CacheFilter10ANDMatcherC1EPNS0_7MatcherES3_,
                          __ZN3APT11CacheFilter10ANDMatcherC1EPNS0_7MatcherES3_S3_,
                          __ZN3APT11CacheFilter10ANDMatcherC1EPNS0_7MatcherES3_S3_S3_,
                          __ZN3APT11CacheFilter10ANDMatcherC1EPNS0_7MatcherES3_S3_S3_S3_, __ZN3APT11CacheFilter10ANDMatcherC1Ev,
                          __ZN3APT11CacheFilter10ANDMatcherC2EPNS0_7MatcherE,
                          __ZN3APT11CacheFilter10ANDMatcherC2EPNS0_7MatcherES3_,
                          __ZN3APT11CacheFilter10ANDMatcherC2EPNS0_7MatcherES3_S3_,
                          __ZN3APT11CacheFilter10ANDMatcherC2EPNS0_7MatcherES3_S3_S3_,
                          __ZN3APT11CacheFilter10ANDMatcherC2EPNS0_7MatcherES3_S3_S3_S3_, __ZN3APT11CacheFilter10ANDMatcherC2Ev,
                          __ZN3APT11CacheFilter10ANDMatcherD0Ev, __ZN3APT11CacheFilter10ANDMatcherD1Ev,
                          __ZN3APT11CacheFilter10ANDMatcherD2Ev, __ZN3APT11CacheFilter10ANDMatcherclERKN8pkgCache11GrpIteratorE,
                          __ZN3APT11CacheFilter10ANDMatcherclERKN8pkgCache11PkgIteratorE,
                          __ZN3APT11CacheFilter10ANDMatcherclERKN8pkgCache11VerIteratorE,
                          __ZN3APT11CacheFilter10NOTMatcherC1EPNS0_7MatcherE, __ZN3APT11CacheFilter10NOTMatcherC2EPNS0_7MatcherE,
                          __ZN3APT11CacheFilter10NOTMatcherD0Ev, __ZN3APT11CacheFilter10NOTMatcherD1Ev,
                          __ZN3APT11CacheFilter10NOTMatcherD2Ev, __ZN3APT11CacheFilter10NOTMatcherclERKN8pkgCache11GrpIteratorE,
                          __ZN3APT11CacheFilter10NOTMatcherclERKN8pkgCache11PkgIteratorE,
                          __ZN3APT11CacheFilter10NOTMatcherclERKN8pkgCache11VerIteratorE,
                          __ZN3APT11CacheFilter11TrueMatcherclERKN8pkgCache11GrpIteratorE,
                          __ZN3APT11CacheFilter11TrueMatcherclERKN8pkgCache11PkgIteratorE,
                          __ZN3APT11CacheFilter11TrueMatcherclERKN8pkgCache11VerIteratorE,
                          __ZN3APT11CacheFilter12FalseMatcherclERKN8pkgCache11GrpIteratorE,
                          __ZN3APT11CacheFilter12FalseMatcherclERKN8pkgCache11PkgIteratorE,
                          __ZN3APT11CacheFilter12FalseMatcherclERKN8pkgCache11VerIteratorE,
                          __ZN3APT11CacheFilter14PackageMatcherD0Ev, __ZN3APT11CacheFilter14PackageMatcherD1Ev,
                          __ZN3APT11CacheFilter14PackageMatcherD2Ev, __ZN3APT11CacheFilter19PackageIsNewInstallC1EP12pkgCacheFile,
                          __ZN3APT11CacheFilter19PackageIsNewInstallC2EP12pkgCacheFile,
                          __ZN3APT11CacheFilter19PackageIsNewInstallD0Ev, __ZN3APT11CacheFilter19PackageIsNewInstallD1Ev,
                          __ZN3APT11CacheFilter19PackageIsNewInstallD2Ev,
                          __ZN3APT11CacheFilter19PackageIsNewInstallclERKN8pkgCache11PkgIteratorE,
                          __ZN3APT11CacheFilter23PackageNameMatchesRegExC1ERKNSt3__112basic_stringIcNS2_11char_traitsIcEENS2_9allocatorIcEEEE,
                          __ZN3APT11CacheFilter23PackageNameMatchesRegExC2ERKNSt3__112basic_stringIcNS2_11char_traitsIcEENS2_9allocatorIcEEEE,
                          __ZN3APT11CacheFilter23PackageNameMatchesRegExD0Ev, __ZN3APT11CacheFilter23PackageNameMatchesRegExD1Ev,
                          __ZN3APT11CacheFilter23PackageNameMatchesRegExD2Ev,
                          __ZN3APT11CacheFilter23PackageNameMatchesRegExclERKN8pkgCache11GrpIteratorE,
                          __ZN3APT11CacheFilter23PackageNameMatchesRegExclERKN8pkgCache11PkgIteratorE,
                          __ZN3APT11CacheFilter25PackageNameMatchesFnmatchC1ERKNSt3__112basic_stringIcNS2_11char_traitsIcEENS2_9allocatorIcEEEE,
                          __ZN3APT11CacheFilter25PackageNameMatchesFnmatchC2ERKNSt3__112basic_stringIcNS2_11char_traitsIcEENS2_9allocatorIcEEEE,
                          __ZN3APT11CacheFilter25PackageNameMatchesFnmatchclERKN8pkgCache11GrpIteratorE,
                          __ZN3APT11CacheFilter25PackageNameMatchesFnmatchclERKN8pkgCache11PkgIteratorE,
                          __ZN3APT11CacheFilter39PackageArchitectureMatchesSpecificationC1ERKNSt3__112basic_stringIcNS2_11char_traitsIcEENS2_9allocatorIcEEEEb,
                          __ZN3APT11CacheFilter39PackageArchitectureMatchesSpecificationC2ERKNSt3__112basic_stringIcNS2_11char_traitsIcEENS2_9allocatorIcEEEEb,
                          __ZN3APT11CacheFilter39PackageArchitectureMatchesSpecificationD0Ev,
                          __ZN3APT11CacheFilter39PackageArchitectureMatchesSpecificationD1Ev,
                          __ZN3APT11CacheFilter39PackageArchitectureMatchesSpecificationD2Ev,
                          __ZN3APT11CacheFilter39PackageArchitectureMatchesSpecificationclERKN8pkgCache11PkgIteratorE,
                          __ZN3APT11CacheFilter39PackageArchitectureMatchesSpecificationclERKPKc,
                          __ZN3APT11CacheFilter7MatcherD0Ev, __ZN3APT11CacheFilter7MatcherD1Ev,
                          __ZN3APT11CacheFilter7MatcherD2Ev, __ZN3APT11CacheFilter9ORMatcher2OREPNS0_7MatcherE,
                          __ZN3APT11CacheFilter9ORMatcherC1EPNS0_7MatcherE, __ZN3APT11CacheFilter9ORMatcherC1EPNS0_7MatcherES3_,
                          __ZN3APT11CacheFilter9ORMatcherC1EPNS0_7MatcherES3_S3_,
                          __ZN3APT11CacheFilter9ORMatcherC1EPNS0_7MatcherES3_S3_S3_,
                          __ZN3APT11CacheFilter9ORMatcherC1EPNS0_7MatcherES3_S3_S3_S3_, __ZN3APT11CacheFilter9ORMatcherC1Ev,
                          __ZN3APT11CacheFilter9ORMatcherC2EPNS0_7MatcherE, __ZN3APT11CacheFilter9ORMatcherC2EPNS0_7MatcherES3_,
                          __ZN3APT11CacheFilter9ORMatcherC2EPNS0_7MatcherES3_S3_,
                          __ZN3APT11CacheFilter9ORMatcherC2EPNS0_7MatcherES3_S3_S3_,
                          __ZN3APT11CacheFilter9ORMatcherC2EPNS0_7MatcherES3_S3_S3_S3_, __ZN3APT11CacheFilter9ORMatcherC2Ev,
                          __ZN3APT11CacheFilter9ORMatcherD0Ev, __ZN3APT11CacheFilter9ORMatcherD1Ev,
                          __ZN3APT11CacheFilter9ORMatcherD2Ev, __ZN3APT11CacheFilter9ORMatcherclERKN8pkgCache11GrpIteratorE,
                          __ZN3APT11CacheFilter9ORMatcherclERKN8pkgCache11PkgIteratorE,
                          __ZN3APT11CacheFilter9ORMatcherclERKN8pkgCache11VerIteratorE,
                          __ZN3APT12StateChanges4HoldERKN8pkgCache11VerIteratorE, __ZN3APT12StateChanges4HoldEv,
                          __ZN3APT12StateChanges4SaveEb, __ZN3APT12StateChanges5ErrorEv,
                          __ZN3APT12StateChanges5PurgeERKN8pkgCache11VerIteratorE, __ZN3APT12StateChanges5PurgeEv,
                          __ZN3APT12StateChanges5clearEv, __ZN3APT12StateChanges6RemoveERKN8pkgCache11VerIteratorE,
                          __ZN3APT12StateChanges6RemoveEv, __ZN3APT12StateChanges6UnholdERKN8pkgCache11VerIteratorE,
                          __ZN3APT12StateChanges6UnholdEv, __ZN3APT12StateChanges7InstallERKN8pkgCache11VerIteratorE,
                          __ZN3APT12StateChanges7InstallEv, __ZN3APT12StateChangesC1EOS0_, __ZN3APT12StateChangesC1Ev,
                          __ZN3APT12StateChangesC2EOS0_, __ZN3APT12StateChangesC2Ev, __ZN3APT12StateChangesD1Ev,
                          __ZN3APT12StateChangesD2Ev, __ZN3APT12StateChangesaSEOS0_,
                          __ZN3APT13Configuration10CompressorC1EPKcS3_S3_S3_S3_t,
                          __ZN3APT13Configuration10CompressorC2EPKcS3_S3_S3_S3_t,
                          __ZN3APT13Configuration12getLanguagesERKbS2_PPKc,
                          __ZN3APT13Configuration13checkLanguageENSt3__112basic_stringIcNS1_11char_traitsIcEENS1_9allocatorIcEEEEb,
                          __ZN3APT13Configuration14getCompressorsEb, __ZN3APT13Configuration16getArchitecturesERKb,
                          __ZN3APT13Configuration16getBuildProfilesEv,
                          __ZN3APT13Configuration17checkArchitectureERKNSt3__112basic_stringIcNS1_11char_traitsIcEENS1_9allocatorIcEEEE,
                          __ZN3APT13Configuration19getCompressionTypesERKb, __ZN3APT13Configuration22getBuildProfilesStringEv,
                          __ZN3APT13Configuration23getCompressorExtensionsEv,
                          __ZN3APT14CacheSetHelper11PackageFromENS0_11PkgSelectorEPNS_25PackageContainerInterfaceER12pkgCacheFileRKNSt3__112basic_stringIcNS6_11char_traitsIcEENS6_9allocatorIcEEEE,
                          __ZN3APT14CacheSetHelper14canNotFindTaskEPNS_25PackageContainerInterfaceER12pkgCacheFileNSt3__112basic_stringIcNS5_11char_traitsIcEENS5_9allocatorIcEEEE,
                          __ZN3APT14CacheSetHelper15PackageFromNameER12pkgCacheFileRKNSt3__112basic_stringIcNS3_11char_traitsIcEENS3_9allocatorIcEEEE,
                          __ZN3APT14CacheSetHelper15PackageFromTaskEPNS_25PackageContainerInterfaceER12pkgCacheFileNSt3__112basic_stringIcNS5_11char_traitsIcEENS5_9allocatorIcEEEE,
                          __ZN3APT14CacheSetHelper15canNotFindRegExEPNS_25PackageContainerInterfaceER12pkgCacheFileNSt3__112basic_stringIcNS5_11char_traitsIcEENS5_9allocatorIcEEEE,
                          __ZN3APT14CacheSetHelper16PackageFromRegExEPNS_25PackageContainerInterfaceER12pkgCacheFileNSt3__112basic_stringIcNS5_11char_traitsIcEENS5_9allocatorIcEEEE,
                          __ZN3APT14CacheSetHelper16canNotFindAllVerEPNS_25VersionContainerInterfaceER12pkgCacheFileRKN8pkgCache11PkgIteratorE,
                          __ZN3APT14CacheSetHelper16canNotGetVersionENS0_11VerSelectorER12pkgCacheFileRKN8pkgCache11PkgIteratorE,
                          __ZN3APT14CacheSetHelper17PackageFromStringEPNS_25PackageContainerInterfaceER12pkgCacheFileRKNSt3__112basic_stringIcNS5_11char_traitsIcEENS5_9allocatorIcEEEE,
                          __ZN3APT14CacheSetHelper17canNotFindFnmatchEPNS_25PackageContainerInterfaceER12pkgCacheFileNSt3__112basic_stringIcNS5_11char_traitsIcEENS5_9allocatorIcEEEE,
                          __ZN3APT14CacheSetHelper17canNotFindPackageENS0_11PkgSelectorEPNS_25PackageContainerInterfaceER12pkgCacheFileRKNSt3__112basic_stringIcNS6_11char_traitsIcEENS6_9allocatorIcEEEE,
                          __ZN3APT14CacheSetHelper17canNotFindPackageEPNS_25PackageContainerInterfaceER12pkgCacheFileRKNSt3__112basic_stringIcNS5_11char_traitsIcEENS5_9allocatorIcEEEE,
                          __ZN3APT14CacheSetHelper17canNotFindPkgNameER12pkgCacheFileRKNSt3__112basic_stringIcNS3_11char_traitsIcEENS3_9allocatorIcEEEE,
                          __ZN3APT14CacheSetHelper17canNotFindVersionENS0_11VerSelectorEPNS_25VersionContainerInterfaceER12pkgCacheFileRKN8pkgCache11PkgIteratorE,
                          __ZN3APT14CacheSetHelper17showTaskSelectionERKN8pkgCache11PkgIteratorERKNSt3__112basic_stringIcNS5_11char_traitsIcEENS5_9allocatorIcEEEE,
                          __ZN3APT14CacheSetHelper18PackageFromFnmatchEPNS_25PackageContainerInterfaceER12pkgCacheFileNSt3__112basic_stringIcNS5_11char_traitsIcEENS5_9allocatorIcEEEE,
                          __ZN3APT14CacheSetHelper18showRegExSelectionERKN8pkgCache11PkgIteratorERKNSt3__112basic_stringIcNS5_11char_traitsIcEENS5_9allocatorIcEEEE,
                          __ZN3APT14CacheSetHelper19canNotFindNewestVerER12pkgCacheFileRKN8pkgCache11PkgIteratorE,
                          __ZN3APT14CacheSetHelper19showSelectedVersionERKN8pkgCache11PkgIteratorENS1_11VerIteratorERKNSt3__112basic_stringIcNS6_11char_traitsIcEENS6_9allocatorIcEEEEb,
                          __ZN3APT14CacheSetHelper20canNotGetCandInstVerER12pkgCacheFileRKN8pkgCache11PkgIteratorE,
                          __ZN3APT14CacheSetHelper20canNotGetInstCandVerER12pkgCacheFileRKN8pkgCache11PkgIteratorE,
                          __ZN3APT14CacheSetHelper20showFnmatchSelectionERKN8pkgCache11PkgIteratorERKNSt3__112basic_stringIcNS5_11char_traitsIcEENS5_9allocatorIcEEEE,
                          __ZN3APT14CacheSetHelper20showPackageSelectionERKN8pkgCache11PkgIteratorENS0_11PkgSelectorERKNSt3__112basic_stringIcNS6_11char_traitsIcEENS6_9allocatorIcEEEE,
                          __ZN3APT14CacheSetHelper20showVersionSelectionERKN8pkgCache11PkgIteratorERKNS1_11VerIteratorENS0_11VerSelectorERKNSt3__112basic_stringIcNS9_11char_traitsIcEENS9_9allocatorIcEEEE,
                          __ZN3APT14CacheSetHelper21canNotFindCandInstVerEPNS_25VersionContainerInterfaceER12pkgCacheFileRKN8pkgCache11PkgIteratorE,
                          __ZN3APT14CacheSetHelper21canNotFindInstCandVerEPNS_25VersionContainerInterfaceER12pkgCacheFileRKN8pkgCache11PkgIteratorE,
                          __ZN3APT14CacheSetHelper22PackageFromCommandLineEPNS_25PackageContainerInterfaceER12pkgCacheFilePPKc,
                          __ZN3APT14CacheSetHelper22PackageFromPackageNameEPNS_25PackageContainerInterfaceER12pkgCacheFileNSt3__112basic_stringIcNS5_11char_traitsIcEENS5_9allocatorIcEEEE,
                          __ZN3APT14CacheSetHelper22canNotFindCandidateVerER12pkgCacheFileRKN8pkgCache11PkgIteratorE,
                          __ZN3APT14CacheSetHelper22canNotFindInstalledVerER12pkgCacheFileRKN8pkgCache11PkgIteratorE,
                          __ZN3APT14CacheSetHelper30PackageFromModifierCommandLineERtPNS_25PackageContainerInterfaceER12pkgCacheFilePKcRKNSt3__14listINS0_11PkgModifierENS8_9allocatorISA_EEEE,
                          __ZN3APT14CacheSetHelperC1EbN11GlobalError7MsgTypeE,
                          __ZN3APT14CacheSetHelperC2EbN11GlobalError7MsgTypeE, __ZN3APT14CacheSetHelperD0Ev,
                          __ZN3APT14CacheSetHelperD1Ev, __ZN3APT14CacheSetHelperD2Ev,
                          __ZN3APT15PackageUniverseC1EP12pkgCacheFile, __ZN3APT15PackageUniverseC1EP8pkgCache,
                          __ZN3APT15PackageUniverseC2EP12pkgCacheFile, __ZN3APT15PackageUniverseC2EP8pkgCache,
                          __ZN3APT15PackageUniverseD0Ev, __ZN3APT15PackageUniverseD1Ev, __ZN3APT15PackageUniverseD2Ev,
                          __ZN3APT25PackageContainerInterfaceC2ENS_14CacheSetHelper11PkgSelectorE,
                          __ZN3APT25PackageContainerInterfaceC2Ev, __ZN3APT25PackageContainerInterfaceD0Ev,
                          __ZN3APT25PackageContainerInterfaceD1Ev, __ZN3APT25PackageContainerInterfaceD2Ev,
                          __ZN3APT25PackageContainerInterfaceaSERKS0_,
                          __ZN3APT25VersionContainerInterface10FromStringEPS0_R12pkgCacheFileNSt3__112basic_stringIcNS4_11char_traitsIcEENS4_9allocatorIcEEEENS_14CacheSetHelper11VerSelectorERSB_b,
                          __ZN3APT25VersionContainerInterface11FromPackageEPS0_R12pkgCacheFileRKN8pkgCache11PkgIteratorENS_14CacheSetHelper11VerSelectorERS8_,
                          __ZN3APT25VersionContainerInterface14FromDependencyEPS0_R12pkgCacheFileRKN8pkgCache11DepIteratorENS_14CacheSetHelper11VerSelectorERS8_,
                          __ZN3APT25VersionContainerInterface15FromCommandLineEPS0_R12pkgCacheFilePPKcNS_14CacheSetHelper11VerSelectorERS7_,
                          __ZN3APT25VersionContainerInterface15getCandidateVerER12pkgCacheFileRKN8pkgCache11PkgIteratorERNS_14CacheSetHelperE,
                          __ZN3APT25VersionContainerInterface15getInstalledVerER12pkgCacheFileRKN8pkgCache11PkgIteratorERNS_14CacheSetHelperE,
                          __ZN3APT25VersionContainerInterface23FromModifierCommandLineERtPS0_R12pkgCacheFilePKcRKNSt3__14listINS0_8ModifierENS7_9allocatorIS9_EEEERNS_14CacheSetHelperE,
                          __ZN3APT25VersionContainerInterfaceC2Ev, __ZN3APT25VersionContainerInterfaceD0Ev,
                          __ZN3APT25VersionContainerInterfaceD1Ev, __ZN3APT25VersionContainerInterfaceD2Ev,
                          __ZN3APT25VersionContainerInterfaceaSERKS0_,
                          __ZN3APT6String10StartswithERKNSt3__112basic_stringIcNS1_11char_traitsIcEENS1_9allocatorIcEEEES9_,
                          __ZN3APT6String5StripERKNSt3__112basic_stringIcNS1_11char_traitsIcEENS1_9allocatorIcEEEE,
                          __ZN3APT6String8EndswithERKNSt3__112basic_stringIcNS1_11char_traitsIcEENS1_9allocatorIcEEEES9_,
                          __ZN3APT7Upgrade7UpgradeER11pkgDepCacheiP10OpProgress,
                          __ZN3APT8Progress14PackageManager13StatusChangedENSt3__112basic_stringIcNS2_11char_traitsIcEENS2_9allocatorIcEEEEjjS8_,
                          __ZN3APT8Progress14PackageManagerC1Ev, __ZN3APT8Progress14PackageManagerC2Ev,
                          __ZN3APT8Progress14PackageManagerD0Ev, __ZN3APT8Progress14PackageManagerD1Ev,
                          __ZN3APT8Progress14PackageManagerD2Ev,
                          __ZN3APT8Progress18PackageManagerText13StatusChangedENSt3__112basic_stringIcNS2_11char_traitsIcEENS2_9allocatorIcEEEEjjS8_,
                          __ZN3APT8Progress18PackageManagerTextC1Ev, __ZN3APT8Progress18PackageManagerTextC2Ev,
                          __ZN3APT8Progress18PackageManagerTextD0Ev, __ZN3APT8Progress18PackageManagerTextD1Ev,
                          __ZN3APT8Progress18PackageManagerTextD2Ev,
                          __ZN3APT8Progress19PackageManagerFancy13StatusChangedENSt3__112basic_stringIcNS2_11char_traitsIcEENS2_9allocatorIcEEEEjjS8_,
                          __ZN3APT8Progress19PackageManagerFancy14DrawStatusLineEv,
                          __ZN3APT8Progress19PackageManagerFancy14HandleSIGWINCHEi,
                          __ZN3APT8Progress19PackageManagerFancy14staticSIGWINCHEi,
                          __ZN3APT8Progress19PackageManagerFancy15GetTerminalSizeEv,
                          __ZN3APT8Progress19PackageManagerFancy18GetTextProgressStrEfi,
                          __ZN3APT8Progress19PackageManagerFancy23SetupTerminalScrollAreaEi,
                          __ZN3APT8Progress19PackageManagerFancy4StopEv, __ZN3APT8Progress19PackageManagerFancy5StartEi,
                          __ZN3APT8Progress19PackageManagerFancy9instancesE, __ZN3APT8Progress19PackageManagerFancyC1Ev,
                          __ZN3APT8Progress19PackageManagerFancyC2Ev, __ZN3APT8Progress19PackageManagerFancyD0Ev,
                          __ZN3APT8Progress19PackageManagerFancyD1Ev, __ZN3APT8Progress19PackageManagerFancyD2Ev,
                          __ZN3APT8Progress24PackageManagerProgressFd13StatusChangedENSt3__112basic_stringIcNS2_11char_traitsIcEENS2_9allocatorIcEEEEjjS8_,
                          __ZN3APT8Progress24PackageManagerProgressFd14ConffilePromptENSt3__112basic_stringIcNS2_11char_traitsIcEENS2_9allocatorIcEEEEjjS8_,
                          __ZN3APT8Progress24PackageManagerProgressFd15WriteToStatusFdENSt3__112basic_stringIcNS2_11char_traitsIcEENS2_9allocatorIcEEEE,
                          __ZN3APT8Progress24PackageManagerProgressFd4StopEv,
                          __ZN3APT8Progress24PackageManagerProgressFd5ErrorENSt3__112basic_stringIcNS2_11char_traitsIcEENS2_9allocatorIcEEEEjjS8_,
                          __ZN3APT8Progress24PackageManagerProgressFd9StartDpkgEv,
                          __ZN3APT8Progress24PackageManagerProgressFdC1Ei, __ZN3APT8Progress24PackageManagerProgressFdC2Ei,
                          __ZN3APT8Progress24PackageManagerProgressFdD0Ev, __ZN3APT8Progress24PackageManagerProgressFdD1Ev,
                          __ZN3APT8Progress24PackageManagerProgressFdD2Ev, __ZN3APT8Progress29PackageManagerProgressFactoryEv,
                          __ZN3APT8Progress30PackageManagerProgressDeb822Fd13StatusChangedENSt3__112basic_stringIcNS2_11char_traitsIcEENS2_9allocatorIcEEEEjjS8_,
                          __ZN3APT8Progress30PackageManagerProgressDeb822Fd14ConffilePromptENSt3__112basic_stringIcNS2_11char_traitsIcEENS2_9allocatorIcEEEEjjS8_,
                          __ZN3APT8Progress30PackageManagerProgressDeb822Fd15WriteToStatusFdENSt3__112basic_stringIcNS2_11char_traitsIcEENS2_9allocatorIcEEEE,
                          __ZN3APT8Progress30PackageManagerProgressDeb822Fd4StopEv,
                          __ZN3APT8Progress30PackageManagerProgressDeb822Fd5ErrorENSt3__112basic_stringIcNS2_11char_traitsIcEENS2_9allocatorIcEEEEjjS8_,
                          __ZN3APT8Progress30PackageManagerProgressDeb822Fd9StartDpkgEv,
                          __ZN3APT8Progress30PackageManagerProgressDeb822FdC1Ei,
                          __ZN3APT8Progress30PackageManagerProgressDeb822FdC2Ei,
                          __ZN3APT8Progress30PackageManagerProgressDeb822FdD0Ev,
                          __ZN3APT8Progress30PackageManagerProgressDeb822FdD1Ev,
                          __ZN3APT8Progress30PackageManagerProgressDeb822FdD2Ev,
                          __ZN3URI11ArchiveOnlyERKNSt3__112basic_stringIcNS0_11char_traitsIcEENS0_9allocatorIcEEEE,
                          __ZN3URI14NoUserPasswordERKNSt3__112basic_stringIcNS0_11char_traitsIcEENS0_9allocatorIcEEEE,
                          __ZN3URI8CopyFromERKNSt3__112basic_stringIcNS0_11char_traitsIcEENS0_9allocatorIcEEEE,
                          __ZN3URI8SiteOnlyERKNSt3__112basic_stringIcNS0_11char_traitsIcEENS0_9allocatorIcEEEE,
                          __ZN3URIcvNSt3__112basic_stringIcNS0_11char_traitsIcEENS0_9allocatorIcEEEEEv,
                          __ZN4EDSP10WriteErrorEPKcRKNSt3__112basic_stringIcNS2_11char_traitsIcEENS2_9allocatorIcEEEEP7__sFILE,
                          __ZN4EDSP10WriteErrorEPKcRKNSt3__112basic_stringIcNS2_11char_traitsIcEENS2_9allocatorIcEEEER6FileFd,
                          __ZN4EDSP11ReadRequestEiRNSt3__14listINS0_12basic_stringIcNS0_11char_traitsIcEENS0_9allocatorIcEEEENS5_IS7_EEEESA_RbSB_SB_,
                          __ZN4EDSP11ReadRequestEiRNSt3__14listINS0_12basic_stringIcNS0_11char_traitsIcEENS0_9allocatorIcEEEENS5_IS7_EEEESA_Rj,
                          __ZN4EDSP12ApplyRequestERKNSt3__14listINS0_12basic_stringIcNS0_11char_traitsIcEENS0_9allocatorIcEEEENS5_IS7_EEEESB_R11pkgDepCache,
                          __ZN4EDSP12ReadResponseEiR11pkgDepCacheP10OpProgress,
                          __ZN4EDSP12WriteRequestER11pkgDepCacheP7__sFILEbbbP10OpProgress,
                          __ZN4EDSP12WriteRequestER11pkgDepCacheR6FileFdjP10OpProgress, __ZN4EDSP13ExecuteSolverEPKcPiS2_,
                          __ZN4EDSP13ExecuteSolverEPKcPiS2_b, __ZN4EDSP13WriteProgressEtPKcP7__sFILE,
                          __ZN4EDSP13WriteProgressEtPKcR6FileFd, __ZN4EDSP13WriteScenarioER11pkgDepCacheP7__sFILEP10OpProgress,
                          __ZN4EDSP13WriteScenarioER11pkgDepCacheR6FileFdP10OpProgress,
                          __ZN4EDSP13WriteSolutionER11pkgDepCacheP7__sFILE,
                          __ZN4EDSP15ResolveExternalEPKcR11pkgDepCachebbbP10OpProgress,
                          __ZN4EDSP15ResolveExternalEPKcR11pkgDepCachejP10OpProgress,
                          __ZN4EDSP19WriteSolutionStanzaER6FileFdPKcRKN8pkgCache11VerIteratorE,
                          __ZN4EDSP20WriteLimitedScenarioER11pkgDepCacheP7__sFILERKN3APT16PackageContainerINSt3__13setIN8pkgCache11PkgIteratorENS6_4lessIS9_EENS6_9allocatorIS9_EEEEEEP10OpProgress,
                          __ZN4EDSP20WriteLimitedScenarioER11pkgDepCacheR6FileFdRKNSt3__16vectorIbNS4_9allocatorIbEEEEP10OpProgress,
                          __ZN4EIPP11ReadRequestEiRNSt3__14listINS0_4pairINS0_12basic_stringIcNS0_11char_traitsIcEENS0_9allocatorIcEEEENS_10PKG_ACTIONEEENS6_ISA_EEEERj,
                          __ZN4EIPP12ApplyRequestERNSt3__14listINS0_4pairINS0_12basic_stringIcNS0_11char_traitsIcEENS0_9allocatorIcEEEENS_10PKG_ACTIONEEENS6_ISA_EEEER11pkgDepCache,
                          __ZN4EIPP12OrderInstallEPKcP17pkgPackageManagerjP10OpProgress,
                          __ZN4EIPP12ReadResponseEiP17pkgPackageManagerP10OpProgress,
                          __ZN4EIPP12WriteRequestER11pkgDepCacheR6FileFdjP10OpProgress,
                          __ZN4EIPP13WriteScenarioER11pkgDepCacheR6FileFdP10OpProgress, __ZN4MMap3MapER6FileFd,
                          __ZN4MMap4SyncEmm, __ZN4MMap4SyncEv, __ZN4MMap5CloseEb, __ZN4MMapC1ER6FileFdm, __ZN4MMapC1Em,
                          __ZN4MMapC2ER6FileFdm, __ZN4MMapC2Em, __ZN4MMapD0Ev, __ZN4MMapD1Ev, __ZN4MMapD2Ev,
                          __ZN6FileFd11FileFdErrnoEPKcS1_z, __ZN6FileFd11FileFdErrorEPKcz,
                          __ZN6FileFd14OpenDescriptorEijNS_12CompressModeEb,
                          __ZN6FileFd14OpenDescriptorEijRKN3APT13Configuration10CompressorEb, __ZN6FileFd16ModificationTimeEv,
                          __ZN6FileFd20OpenInternDescriptorEjRKN3APT13Configuration10CompressorE,
                          __ZN6FileFd4OpenENSt3__112basic_stringIcNS0_11char_traitsIcEENS0_9allocatorIcEEEEjNS_12CompressModeEm,
                          __ZN6FileFd4OpenENSt3__112basic_stringIcNS0_11char_traitsIcEENS0_9allocatorIcEEEEjRKN3APT13Configuration10CompressorEm,
                          __ZN6FileFd4ReadEPvyPy, __ZN6FileFd4ReadEiPvyPy, __ZN6FileFd4SeekEy, __ZN6FileFd4SizeEv,
                          __ZN6FileFd4SkipEy, __ZN6FileFd4SyncEv, __ZN6FileFd4TellEv, __ZN6FileFd4gzFdEv,
                          __ZN6FileFd5CloseEv, __ZN6FileFd5FlushEv, __ZN6FileFd5WriteEPKvy, __ZN6FileFd5WriteEiPKvy,
                          __ZN6FileFd8FileSizeEv, __ZN6FileFd8ReadLineEPcy, __ZN6FileFd8TruncateEy,
                          __ZN6FileFdC1ENSt3__112basic_stringIcNS0_11char_traitsIcEENS0_9allocatorIcEEEEjNS_12CompressModeEm,
                          __ZN6FileFdC1ENSt3__112basic_stringIcNS0_11char_traitsIcEENS0_9allocatorIcEEEEjm, __ZN6FileFdC1Eib,
                          __ZN6FileFdC1EijNS_12CompressModeE, __ZN6FileFdC1Ev,
                          __ZN6FileFdC2ENSt3__112basic_stringIcNS0_11char_traitsIcEENS0_9allocatorIcEEEEjNS_12CompressModeEm,
                          __ZN6FileFdC2ENSt3__112basic_stringIcNS0_11char_traitsIcEENS0_9allocatorIcEEEEjm, __ZN6FileFdC2Eib,
                          __ZN6FileFdC2EijNS_12CompressModeE, __ZN6FileFdC2Ev, __ZN6FileFdD0Ev, __ZN6FileFdD1Ev,
                          __ZN6FileFdD2Ev, __ZN6Hashes17GetHashStringListEv, __ZN6Hashes3AddEPKhy, __ZN6Hashes3AddEPKhyj,
                          __ZN6Hashes5AddFDER6FileFdy, __ZN6Hashes5AddFDER6FileFdyj, __ZN6Hashes5AddFDEiy,
                          __ZN6Hashes5AddFDEiyj, __ZN6HashesC1ERK14HashStringList, __ZN6HashesC1Ej, __ZN6HashesC1Ev,
                          __ZN6HashesC2ERK14HashStringList, __ZN6HashesC2Ej, __ZN6HashesC2Ev, __ZN6HashesD0Ev,
                          __ZN6HashesD1Ev, __ZN6HashesD2Ev, __ZN8pkgCache11CompTypeDebEh,
                          __ZN8pkgCache11DepIterator6GlobOrERS0_S1_, __ZN8pkgCache11DepIteratorppEv,
                          __ZN8pkgCache11GrpIteratorppEv, __ZN8pkgCache11PkgIteratorppEv, __ZN8pkgCache15PkgFileIterator4IsOkEv,
                          __ZN8pkgCache15PkgFileIterator6RelStrEv, __ZN8pkgCache15RlsFileIterator4IsOkEv,
                          __ZN8pkgCache15RlsFileIterator6RelStrEv, __ZN8pkgCache5ReMapERKb, __ZN8pkgCache6HeaderC1Ev,
                          __ZN8pkgCache6HeaderC2Ev, __ZN8pkgCache7DepTypeEh, __ZN8pkgCache7FindGrpEN3APT10StringViewE,
                          __ZN8pkgCache7FindGrpERKNSt3__112basic_stringIcNS0_11char_traitsIcEENS0_9allocatorIcEEEE,
                          __ZN8pkgCache7FindPkgEN3APT10StringViewE, __ZN8pkgCache7FindPkgEN3APT10StringViewES1_,
                          __ZN8pkgCache7FindPkgERKNSt3__112basic_stringIcNS0_11char_traitsIcEENS0_9allocatorIcEEEE,
                          __ZN8pkgCache7FindPkgERKNSt3__112basic_stringIcNS0_11char_traitsIcEENS0_9allocatorIcEEEES8_,
                          __ZN8pkgCache8CompTypeEh, __ZN8pkgCache8PriorityEh, __ZN8pkgCache9CacheHashEv,
                          __ZN8pkgCacheC1EP4MMapb, __ZN8pkgCacheC2EP4MMapb, __ZN8pkgCacheD0Ev, __ZN8pkgCacheD1Ev,
                          __ZN8pkgCacheD2Ev,
                          __ZN8pkgCdrom11DropRepeatsERNSt3__16vectorINS0_12basic_stringIcNS0_11char_traitsIcEENS0_9allocatorIcEEEENS5_IS7_EEEEPKc,
                          __ZN8pkgCdrom12FindPackagesENSt3__112basic_stringIcNS0_11char_traitsIcEENS0_9allocatorIcEEEERNS0_6vectorIS6_NS4_IS6_EEEESA_SA_SA_RS6_P14pkgCdromStatusj,
                          __ZN8pkgCdrom12UnmountCDROMERKNSt3__112basic_stringIcNS0_11char_traitsIcEENS0_9allocatorIcEEEEP14pkgCdromStatus,
                          __ZN8pkgCdrom13WriteDatabaseER13Configuration,
                          __ZN8pkgCdrom14DropBinaryArchERNSt3__16vectorINS0_12basic_stringIcNS0_11char_traitsIcEENS0_9allocatorIcEEEENS5_IS7_EEEE,
                          __ZN8pkgCdrom15DropTranslationERNSt3__16vectorINS0_12basic_stringIcNS0_11char_traitsIcEENS0_9allocatorIcEEEENS5_IS7_EEEE,
                          __ZN8pkgCdrom15WriteSourceListENSt3__112basic_stringIcNS0_11char_traitsIcEENS0_9allocatorIcEEEERNS0_6vectorIS6_NS4_IS6_EEEEb,
                          __ZN8pkgCdrom16ReduceSourcelistENSt3__112basic_stringIcNS0_11char_traitsIcEENS0_9allocatorIcEEEERNS0_6vectorIS6_NS4_IS6_EEEE,
                          __ZN8pkgCdrom18MountAndIdentCDROMER13ConfigurationRNSt3__112basic_stringIcNS2_11char_traitsIcEENS2_9allocatorIcEEEES9_P14pkgCdromStatusb,
                          __ZN8pkgCdrom3AddEP14pkgCdromStatus,
                          __ZN8pkgCdrom5IdentERNSt3__112basic_stringIcNS0_11char_traitsIcEENS0_9allocatorIcEEEEP14pkgCdromStatus,
                          __ZN8pkgCdrom5ScoreENSt3__112basic_stringIcNS0_11char_traitsIcEENS0_9allocatorIcEEEE, __ZN8pkgCdromC1Ev,
                          __ZN8pkgCdromC2Ev, __ZN8pkgCdromD0Ev, __ZN8pkgCdromD1Ev, __ZN8pkgCdromD2Ev,
                          __ZN9IndexCopy12CopyPackagesENSt3__112basic_stringIcNS0_11char_traitsIcEENS0_9allocatorIcEEEES6_RNS0_6vectorIS6_NS4_IS6_EEEEP14pkgCdromStatus,
                          __ZN9IndexCopy15ReconstructChopERmNSt3__112basic_stringIcNS1_11char_traitsIcEENS1_9allocatorIcEEEES7_,
                          __ZN9IndexCopy17ReconstructPrefixERNSt3__112basic_stringIcNS0_11char_traitsIcEENS0_9allocatorIcEEEES6_S6_S6_,
                          __ZN9IndexCopy19ConvertToSourceListENSt3__112basic_stringIcNS0_11char_traitsIcEENS0_9allocatorIcEEEERS6_,
                          __ZN9IndexCopy8ChopDirsENSt3__112basic_stringIcNS0_11char_traitsIcEENS0_9allocatorIcEEEEj,
                          __ZN9IndexCopy9GrabFirstENSt3__112basic_stringIcNS0_11char_traitsIcEENS0_9allocatorIcEEEERS6_j,
                          __ZN9IndexCopyC2Ev, __ZN9IndexCopyD0Ev, __ZN9IndexCopyD1Ev, __ZN9IndexCopyD2Ev,
                          __ZN9SigVerify13CopyAndVerifyENSt3__112basic_stringIcNS0_11char_traitsIcEENS0_9allocatorIcEEEES6_RNS0_6vectorIS6_NS4_IS6_EEEES9_S9_,
                          __ZN9SigVerify13CopyMetaIndexENSt3__112basic_stringIcNS0_11char_traitsIcEENS0_9allocatorIcEEEES6_S6_S6_,
                          __ZN9SigVerify6VerifyENSt3__112basic_stringIcNS0_11char_traitsIcEENS0_9allocatorIcEEEES6_P9metaIndex,
                          __ZN9SigVerify7RunGPGVERKNSt3__112basic_stringIcNS0_11char_traitsIcEENS0_9allocatorIcEEEES8_RKi,
                          __ZN9SigVerify7RunGPGVERKNSt3__112basic_stringIcNS0_11char_traitsIcEENS0_9allocatorIcEEEES8_RKiPi,
                          __ZN9SigVerifyC1Ev, __ZN9SigVerifyC2Ev, __ZN9SigVerifyD0Ev, __ZN9SigVerifyD1Ev,
                          __ZN9SigVerifyD2Ev, __ZN9debSystem10InitializeER13Configuration, __ZN9debSystem12CheckUpdatesEv,
                          __ZN9debSystem14AddStatusFilesERNSt3__16vectorIP12pkgIndexFileNS0_9allocatorIS3_EEEE,
                          __ZN9debSystem16ArchiveSupportedEPKc, __ZN9debSystem17GetDpkgExecutableEv,
                          __ZN9debSystem17SupportsMultiArchEv, __ZN9debSystem18GetDpkgBaseCommandEv,
                          __ZN9debSystem19DpkgChrootDirectoryEv, __ZN9debSystem22SupportedArchitecturesEv,
                          __ZN9debSystem4LockEv, __ZN9debSystem5ScoreERK13Configuration, __ZN9debSystem6UnLockEb,
                          __ZN9debSystem8ExecDpkgERKNSt3__16vectorINS0_12basic_stringIcNS0_11char_traitsIcEENS0_9allocatorIcEEEENS5_IS7_EEEEPiSC_b,
                          __ZN9debSystemC1Ev, __ZN9debSystemC2Ev, __ZN9debSystemD0Ev, __ZN9debSystemD1Ev,
                          __ZN9debSystemD2Ev, __ZN9edspIndex16CreateListParserER6FileFd,
                          __ZN9edspIndexC1ERKNSt3__112basic_stringIcNS0_11char_traitsIcEENS0_9allocatorIcEEEE,
                          __ZN9edspIndexC2ERKNSt3__112basic_stringIcNS0_11char_traitsIcEENS0_9allocatorIcEEEE, __ZN9edspIndexD0Ev,
                          __ZN9edspIndexD1Ev, __ZN9edspIndexD2Ev, __ZN9eippIndex16CreateListParserER6FileFd,
                          __ZN9eippIndexC1ERKNSt3__112basic_stringIcNS0_11char_traitsIcEENS0_9allocatorIcEEEE,
                          __ZN9eippIndexC2ERKNSt3__112basic_stringIcNS0_11char_traitsIcEENS0_9allocatorIcEEEE, __ZN9eippIndexD0Ev,
                          __ZN9eippIndexD1Ev, __ZN9eippIndexD2Ev, __ZN9metaIndex8swapLoadEPS_,
                          __ZN9metaIndexC2ERKNSt3__112basic_stringIcNS0_11char_traitsIcEENS0_9allocatorIcEEEES8_PKc,
                          __ZN9metaIndexD0Ev, __ZN9metaIndexD1Ev, __ZN9metaIndexD2Ev, __ZN9pkgDPkgPM10SendV2PkgsEP7__sFILE,
                          __ZN9pkgDPkgPM12SendPkgsInfoEP7__sFILERKj, __ZN9pkgDPkgPM12StopPtyMagicEv,
                          __ZN9pkgDPkgPM13DoTerminalPtyEi, __ZN9pkgDPkgPM13StartPtyMagicEv, __ZN9pkgDPkgPM14DoDpkgStatusFdEi,
                          __ZN9pkgDPkgPM15WriteHistoryTagERKNSt3__112basic_stringIcNS0_11char_traitsIcEENS0_9allocatorIcEEEES6_,
                          __ZN9pkgDPkgPM17WriteApportReportEPKcS1_,
                          __ZN9pkgDPkgPM18ExpandPendingCallsERNSt3__16vectorINS_4ItemENS0_9allocatorIS2_EEEER11pkgDepCache,
                          __ZN9pkgDPkgPM18RunScriptsWithPkgsEPKc, __ZN9pkgDPkgPM18SetupSlavePtyMagicEv,
                          __ZN9pkgDPkgPM21ProcessDpkgStatusLineEPc,
                          __ZN9pkgDPkgPM21handleDisappearActionERKNSt3__112basic_stringIcNS0_11char_traitsIcEENS0_9allocatorIcEEEE,
                          __ZN9pkgDPkgPM24BuildPackagesProgressMapEv,
                          __ZN9pkgDPkgPM24handleCrossUpgradeActionERKNSt3__112basic_stringIcNS0_11char_traitsIcEENS0_9allocatorIcEEEE,
                          __ZN9pkgDPkgPM2GoEPN3APT8Progress14PackageManagerE, __ZN9pkgDPkgPM2GoEi, __ZN9pkgDPkgPM5ResetEv,
                          __ZN9pkgDPkgPM6RemoveEN8pkgCache11PkgIteratorEb, __ZN9pkgDPkgPM7DoStdinEi,
                          __ZN9pkgDPkgPM7InstallEN8pkgCache11PkgIteratorENSt3__112basic_stringIcNS2_11char_traitsIcEENS2_9allocatorIcEEEE,
                          __ZN9pkgDPkgPM7OpenLogEv, __ZN9pkgDPkgPM8CloseLogEv,
                          __ZN9pkgDPkgPM9ConfigureEN8pkgCache11PkgIteratorE, __ZN9pkgDPkgPMC1EP11pkgDepCache,
                          __ZN9pkgDPkgPMC2EP11pkgDepCache, __ZN9pkgDPkgPMD0Ev, __ZN9pkgDPkgPMD1Ev, __ZN9pkgDPkgPMD2Ev,
                          __ZN9pkgPolicy11GetPriorityERKN8pkgCache11PkgIteratorE,
                          __ZN9pkgPolicy11GetPriorityERKN8pkgCache11VerIteratorEb,
                          __ZN9pkgPolicy11GetPriorityERKN8pkgCache15PkgFileIteratorE, __ZN9pkgPolicy12InitDefaultsEv,
                          __ZN9pkgPolicy15GetCandidateVerERKN8pkgCache11PkgIteratorE,
                          __ZN9pkgPolicy8GetMatchERKN8pkgCache11PkgIteratorE,
                          __ZN9pkgPolicy9CreatePinEN15pkgVersionMatch9MatchTypeENSt3__112basic_stringIcNS2_11char_traitsIcEENS2_9allocatorIcEEEES8_s,
                          __ZN9pkgPolicyC1EP8pkgCache, __ZN9pkgPolicyC2EP8pkgCache, __ZN9pkgPolicyD0Ev, __ZN9pkgPolicyD1Ev,
                          __ZN9pkgPolicyD2Ev, __ZN9pkgSystem10GlobalListE, __ZN9pkgSystem13GlobalListLenE,
                          __ZN9pkgSystem17SetVersionMappingEjj, __ZN9pkgSystem9GetSystemEPKc,
                          __ZN9pkgSystemC2EPKcP19pkgVersioningSystem, __ZN9pkgSystemD0Ev, __ZN9pkgSystemD1Ev,
                          __ZN9pkgSystemD2Ev,
                          __ZNK10HashString10VerifyFileENSt3__112basic_stringIcNS0_11char_traitsIcEENS0_9allocatorIcEEEE,
                          __ZNK10HashString14GetHashForFileENSt3__112basic_stringIcNS0_11char_traitsIcEENS0_9allocatorIcEEEE,
                          __ZNK10HashString5emptyEv, __ZNK10HashString5toStrEv, __ZNK10HashString6usableEv,
                          __ZNK10HashStringeqERKS_, __ZNK10HashStringneERKS_, __ZNK10pkgAcqFile14HashesRequiredEv,
                          __ZNK10pkgAcqFile16Custom600HeadersEv, __ZNK10pkgAcqFile17GetExpectedHashesEv,
                          __ZNK10pkgAcquire4Item16Custom600HeadersEv, __ZNK10pkgAcquire4Item16GetFinalFilenameEv,
                          __ZNK10pkgAcquire4Item7HashSumEv, __ZNK10pkgAcquire4Item8GetOwnerEv,
                          __ZNK10pkgAcquire4Item9IsTrustedEv, __ZNK10pkgAcquire4Item9ShortDescEv,
                          __ZNK10pkgAcquire5Queue5QItem11GetPriorityEv, __ZNK10pkgAcquire5Queue5QItem14GetMaximumSizeEv,
                          __ZNK10pkgAcquire5Queue5QItem16Custom600HeadersEv, __ZNK10pkgAcquire5Queue5QItem17GetExpectedHashesEv,
                          __ZNK10pkgAcquire5Queue5QItem20SyncDestinationFilesEv, __ZNK11CommandLine8FileSizeEv,
                          __ZNK11GlobalError5emptyERKNS_7MsgTypeE, __ZNK11IndexTarget10OptionBoolENS_10OptionKeysE,
                          __ZNK11IndexTarget6FormatENSt3__112basic_stringIcNS0_11char_traitsIcEENS0_9allocatorIcEEEE,
                          __ZNK11IndexTarget6OptionENS_10OptionKeysE, __ZNK11pkgAcqIndex10GetMetaKeyEv,
                          __ZNK11pkgAcqIndex16Custom600HeadersEv, __ZNK11pkgAcqIndex16GetFinalFilenameEv,
                          __ZNK11pkgDepCache12VersionStateEN8pkgCache11DepIteratorEhhh,
                          __ZNK11pkgDepCache6Policy14IsImportantDepERKN8pkgCache11DepIteratorE,
                          __ZNK12pkgAcqMethod11PrintStatusEPKcS1_RA1_13__va_list_tag,
                          __ZNK12pkgIndexFile10SourceInfoERKN13pkgSrcRecords6ParserERKNS0_4FileE,
                          __ZNK12pkgIndexFile11ArchiveInfoERKN8pkgCache11VerIteratorE,
                          __ZNK12pkgIndexFile11FindInCacheER8pkgCache,
                          __ZNK13Configuration10FindVectorEPKcRKNSt3__112basic_stringIcNS2_11char_traitsIcEENS2_9allocatorIcEEEEb,
                          __ZNK13Configuration18MatchAgainstConfig5MatchEPKc, __ZNK13Configuration4FindEPKcS1_,
                          __ZNK13Configuration4Item7FullTagEPKS0_, __ZNK13Configuration5FindBEPKcRKb,
                          __ZNK13Configuration5FindIEPKcRKi, __ZNK13Configuration6ExistsEPKc,
                          __ZNK13Configuration7FindAnyEPKcS1_, __ZNK13Configuration7FindDirEPKcS1_,
                          __ZNK13Configuration8FindFileEPKcS1_, __ZNK13Configuration9ExistsAnyEPKc,
                          __ZNK13edspLikeIndex11HasPackagesEv, __ZNK13edspLikeIndex13GetIndexFlagsEv,
                          __ZNK13edspLikeIndex15GetArchitectureEv, __ZNK13edspLikeIndex6ExistsEv,
                          __ZNK13pkgAcqArchive14HashesRequiredEv, __ZNK13pkgAcqArchive16GetFinalFilenameEv,
                          __ZNK13pkgAcqArchive17GetExpectedHashesEv, __ZNK13pkgAcqArchive7DescURIEv,
                          __ZNK13pkgAcqArchive9IsTrustedEv, __ZNK13pkgAcqArchive9ShortDescEv,
                          __ZNK13pkgAcqMetaSig16Custom600HeadersEv, __ZNK13pkgAcqMetaSig16GetFinalFilenameEv,
                          __ZNK13pkgSourceList10GetIndexesEP10pkgAcquireb, __ZNK13pkgSourceList16GetVolatileFilesEv,
                          __ZNK13pkgSourceList4Type8FixupURIERNSt3__112basic_stringIcNS1_11char_traitsIcEENS1_9allocatorIcEEEE,
                          __ZNK13pkgSourceList4Type9ParseLineERNSt3__16vectorIP9metaIndexNS1_9allocatorIS4_EEEEPKcjRKNS1_12basic_stringIcNS1_11char_traitsIcEENS5_IcEEEE,
                          __ZNK13pkgSourceList9FindIndexEN8pkgCache15PkgFileIteratorERP12pkgIndexFile,
                          __ZNK13pkgTagSection12FindInternalEjRPKcS2_, __ZNK13pkgTagSection13FindBInternalEjb,
                          __ZNK13pkgTagSection13FindIInternalEjl, __ZNK13pkgTagSection15FindRawInternalEj,
                          __ZNK13pkgTagSection15FindULLInternalEjRKy, __ZNK13pkgTagSection16FindFlagInternalEjRhh,
                          __ZNK13pkgTagSection16FindFlagInternalEjRmm, __ZNK13pkgTagSection3GetERPKcS2_j,
                          __ZNK13pkgTagSection4FindEN3APT10StringViewE, __ZNK13pkgTagSection4FindEN3APT10StringViewERPKcS4_,
                          __ZNK13pkgTagSection4FindEN3APT10StringViewERj, __ZNK13pkgTagSection4FindENS_3KeyE,
                          __ZNK13pkgTagSection4FindENS_3KeyERPKcS3_, __ZNK13pkgTagSection4FindENS_3KeyERj,
                          __ZNK13pkgTagSection4FindEPKcRS1_S2_, __ZNK13pkgTagSection4FindEPKcRj, __ZNK13pkgTagSection5CountEv,
                          __ZNK13pkgTagSection5FindBEN3APT10StringViewEb, __ZNK13pkgTagSection5FindBENS_3KeyEb,
                          __ZNK13pkgTagSection5FindBEPKcRKb, __ZNK13pkgTagSection5FindIEN3APT10StringViewEl,
                          __ZNK13pkgTagSection5FindIENS_3KeyEl, __ZNK13pkgTagSection5FindIEPKcl, __ZNK13pkgTagSection5FindSEPKc,
                          __ZNK13pkgTagSection5WriteER6FileFdPKPKcRKNSt3__16vectorINS_3TagENS6_9allocatorIS8_EEEE,
                          __ZNK13pkgTagSection6ExistsEN3APT10StringViewE, __ZNK13pkgTagSection6ExistsEPKc,
                          __ZNK13pkgTagSection7FindRawEN3APT10StringViewE, __ZNK13pkgTagSection7FindRawENS_3KeyE,
                          __ZNK13pkgTagSection7FindULLEN3APT10StringViewERKy, __ZNK13pkgTagSection7FindULLENS_3KeyERKy,
                          __ZNK13pkgTagSection7FindULLEPKcRKy, __ZNK13pkgTagSection8FindFlagEN3APT10StringViewERhh,
                          __ZNK13pkgTagSection8FindFlagEN3APT10StringViewERmm, __ZNK13pkgTagSection8FindFlagENS_3KeyERhh,
                          __ZNK13pkgTagSection8FindFlagENS_3KeyERmm, __ZNK13pkgTagSection8FindFlagEPKcRhh,
                          __ZNK13pkgTagSection8FindFlagEPKcRmm, __ZNK13pkgTagSection8FindRawSEPKc,
                          __ZNK14HashStringList10VerifyFileENSt3__112basic_stringIcNS0_11char_traitsIcEENS0_9allocatorIcEEEE,
                          __ZNK14HashStringList4findEPKc, __ZNK14HashStringList6usableEv, __ZNK14HashStringList8FileSizeEv,
                          __ZNK14HashStringListeqERKS_, __ZNK14HashStringListneERKS_, __ZNK14debStatusIndex12GetComponentEv,
                          __ZNK14debStatusIndex13GetIndexFlagsEv, __ZNK14debStatusIndex15GetArchitectureEv,
                          __ZNK14debStatusIndex7GetTypeEv, __ZNK14edspLikeSystem8CreatePMEP11pkgDepCache,
                          __ZNK14edspLikeSystem9FindIndexEN8pkgCache15PkgFileIteratorERP12pkgIndexFile,
                          __ZNK14pkgAcqMetaBase14HashesRequiredEv, __ZNK14pkgAcqMetaBase16Custom600HeadersEv,
                          __ZNK14pkgAcqMetaBase16GetFinalFilenameEv,
                          __ZNK14pkgAcqMetaBase17CheckDownloadDoneEP21pkgAcqTransactionItemRKNSt3__112basic_stringIcNS2_11char_traitsIcEENS2_9allocatorIcEEEERK14HashStringList,
                          __ZNK14pkgAcqMetaBase17GetExpectedHashesEv, __ZNK14pkgAcqMetaBase19TransactionHasErrorEv,
                          __ZNK15debDscFileIndex12GetComponentEv, __ZNK15debDscFileIndex13GetIndexFlagsEv,
                          __ZNK15debDscFileIndex15CreateSrcParserEv, __ZNK15debDscFileIndex15GetArchitectureEv,
                          __ZNK15debDscFileIndex7GetTypeEv, __ZNK15debReleaseIndex11FindInCacheER8pkgCacheb,
                          __ZNK15debReleaseIndex12MetaIndexURIEPKc, __ZNK15debReleaseIndex13MetaIndexFileEPKc,
                          __ZNK15debReleaseIndex13MetaIndexInfoEPKc, __ZNK15debReleaseIndex13UnloadedCloneEv,
                          __ZNK15debReleaseIndex15GetIndexTargetsEv,
                          __ZNK15debReleaseIndex23IsArchitectureSupportedERKNSt3__112basic_stringIcNS0_11char_traitsIcEENS0_9allocatorIcEEEE,
                          __ZNK15debReleaseIndex29IsArchitectureAllSupportedForERK11IndexTarget,
                          __ZNK15debReleaseIndex5MergeER17pkgCacheGeneratorP10OpProgress, __ZNK15debReleaseIndex8DescribeEv,
                          __ZNK15debReleaseIndex9IsTrustedEv,
                          __ZNK15debSourcesIndex10SourceInfoERKN13pkgSrcRecords6ParserERKNS0_4FileE,
                          __ZNK15debSourcesIndex13GetIndexFlagsEv, __ZNK15debSourcesIndex15CreateSrcParserEv,
                          __ZNK15debSourcesIndex7GetTypeEv, __ZNK15pkgAcqBaseIndex16GetFinalFilenameEv,
                          __ZNK15pkgAcqDiffIndex10GetMetaKeyEv, __ZNK15pkgAcqDiffIndex13QueueOnIMSHitEv,
                          __ZNK15pkgAcqDiffIndex16GetFinalFilenameEv, __ZNK15pkgAcqMetaIndex7DescURIEv,
                          __ZNK16debPackagesIndex11ArchiveInfoERKN8pkgCache11VerIteratorE,
                          __ZNK16debPackagesIndex13GetIndexFlagsEv, __ZNK16debPackagesIndex7GetTypeEv,
                          __ZNK16pkgAcqIndexDiffs14HashesRequiredEv, __ZNK16pkgAcqIndexDiffs16Custom600HeadersEv,
                          __ZNK16pkgAcqIndexDiffs17GetExpectedHashesEv, __ZNK18debDebPkgFileIndex11FindInCacheER8pkgCache,
                          __ZNK18debDebPkgFileIndex12GetComponentEv, __ZNK18debDebPkgFileIndex13GetIndexFlagsEv,
                          __ZNK18debDebPkgFileIndex15GetArchitectureEv,
                          __ZNK18debDebPkgFileIndex16ArchiveInfo_implERKN8pkgCache11VerIteratorE,
                          __ZNK18debDebPkgFileIndex7GetTypeEv, __ZNK18debSrcRecordParser7PackageEv,
                          __ZNK18pkgAcqMetaClearSig16Custom600HeadersEv, __ZNK18pkgDebianIndexFile11FindInCacheER8pkgCache,
                          __ZNK19debRecordParserBase6HashesEv, __ZNK20debTranslationsIndex11HasPackagesEv,
                          __ZNK20debTranslationsIndex13GetIndexFlagsEv, __ZNK20debTranslationsIndex15GetArchitectureEv,
                          __ZNK20debTranslationsIndex7GetTypeEv, __ZNK21debStringPackageIndex12GetComponentEv,
                          __ZNK21debStringPackageIndex13GetIndexFlagsEv, __ZNK21debStringPackageIndex15GetArchitectureEv,
                          __ZNK21debStringPackageIndex7GetTypeEv, __ZNK21pkgAcqIndexMergeDiffs14HashesRequiredEv,
                          __ZNK21pkgAcqIndexMergeDiffs16Custom600HeadersEv, __ZNK21pkgAcqIndexMergeDiffs17GetExpectedHashesEv,
                          __ZNK21pkgAcqTransactionItem10GetMetaKeyEv, __ZNK21pkgAcqTransactionItem14HashesRequiredEv,
                          __ZNK21pkgAcqTransactionItem17GetExpectedHashesEv,
                          __ZNK21pkgAcqTransactionItem20GetExpectedHashesForERKNSt3__112basic_stringIcNS0_11char_traitsIcEENS0_9allocatorIcEEEE,
                          __ZNK22pkgDebianIndexRealFile10ArchiveURIERKNSt3__112basic_stringIcNS0_11char_traitsIcEENS0_9allocatorIcEEEE,
                          __ZNK22pkgDebianIndexRealFile13IndexFileNameEv, __ZNK22pkgDebianIndexRealFile22GetProgressDescriptionEv,
                          __ZNK22pkgDebianIndexRealFile4SizeEv, __ZNK22pkgDebianIndexRealFile6ExistsEv,
                          __ZNK22pkgDebianIndexRealFile8DescribeEb, __ZNK23debDebianSourceDirIndex12GetComponentEv,
                          __ZNK23debDebianSourceDirIndex7GetTypeEv,
                          __ZNK24pkgDebianIndexTargetFile10ArchiveURIERKNSt3__112basic_stringIcNS0_11char_traitsIcEENS0_9allocatorIcEEEE,
                          __ZNK24pkgDebianIndexTargetFile12GetComponentEv, __ZNK24pkgDebianIndexTargetFile13IndexFileNameEv,
                          __ZNK24pkgDebianIndexTargetFile15GetArchitectureEv,
                          __ZNK24pkgDebianIndexTargetFile22GetProgressDescriptionEv, __ZNK24pkgDebianIndexTargetFile4SizeEv,
                          __ZNK24pkgDebianIndexTargetFile6ExistsEv, __ZNK24pkgDebianIndexTargetFile8DescribeEb,
                          __ZNK3APT12StateChanges5emptyEv, __ZNK6SrvReceqERKS_, __ZNK8pkgCache11DepIterator10AllTargetsEv,
                          __ZNK8pkgCache11DepIterator10IsCriticalEv, __ZNK8pkgCache11DepIterator10IsImplicitEv,
                          __ZNK8pkgCache11DepIterator10IsNegativeEv, __ZNK8pkgCache11DepIterator11IsIgnorableERKNS_11PkgIteratorE,
                          __ZNK8pkgCache11DepIterator11IsIgnorableERKNS_11PrvIteratorE,
                          __ZNK8pkgCache11DepIterator11IsSatisfiedERKNS_11PrvIteratorE,
                          __ZNK8pkgCache11DepIterator11IsSatisfiedERKNS_11VerIteratorE,
                          __ZNK8pkgCache11DepIterator14SmartTargetPkgERNS_11PkgIteratorE,
                          __ZNK8pkgCache11GrpIterator16FindPreferredPkgERKb,
                          __ZNK8pkgCache11GrpIterator7FindPkgEN3APT10StringViewE,
                          __ZNK8pkgCache11GrpIterator7FindPkgENSt3__112basic_stringIcNS1_11char_traitsIcEENS1_9allocatorIcEEEE,
                          __ZNK8pkgCache11GrpIterator7FindPkgEPKc, __ZNK8pkgCache11GrpIterator7NextPkgERKNS_11PkgIteratorE,
                          __ZNK8pkgCache11PkgIterator10CurVersionEv, __ZNK8pkgCache11PkgIterator11CandVersionEv,
                          __ZNK8pkgCache11PkgIterator5StateEv, __ZNK8pkgCache11PkgIterator8FullNameERKb,
                          __ZNK8pkgCache11VerIterator10CompareVerERKS0_, __ZNK8pkgCache11VerIterator10NewestFileEv,
                          __ZNK8pkgCache11VerIterator12DownloadableEv, __ZNK8pkgCache11VerIterator13MultiArchTypeEv,
                          __ZNK8pkgCache11VerIterator21TranslatedDescriptionEv, __ZNK8pkgCache11VerIterator6RelStrEv,
                          __ZNK8pkgCache11VerIterator9AutomaticEv, __ZNK8pkgCache5sHashEN3APT10StringViewE,
                          __ZNK8pkgCache5sHashEPKc,
                          __ZNK8pkgCache5sHashERKNSt3__112basic_stringIcNS0_11char_traitsIcEENS0_9allocatorIcEEEE,
                          __ZNK8pkgCache6Header10CheckSizesERS0_, __ZNK9debSystem8CreatePMEP11pkgDepCache,
                          __ZNK9debSystem9FindIndexEN8pkgCache15PkgFileIteratorERP12pkgIndexFile, __ZNK9edspIndex12GetComponentEv,
                          __ZNK9edspIndex7GetTypeEv, __ZNK9eippIndex12GetComponentEv, __ZNK9eippIndex7GetTypeEv,
                          __ZNK9metaIndex10GetTrustedEv, __ZNK9metaIndex11FindInCacheER8pkgCacheb,
                          __ZNK9metaIndex11GetCodenameEv, __ZNK9metaIndex11GetSignedByEv, __ZNK9metaIndex13GetValidUntilEv,
                          __ZNK9metaIndex15GetExpectedDistEv, __ZNK9metaIndex21GetLoadedSuccessfullyEv,
                          __ZNK9metaIndex23IsArchitectureSupportedERKNSt3__112basic_stringIcNS0_11char_traitsIcEENS0_9allocatorIcEEEE,
                          __ZNK9metaIndex24GetSupportsAcquireByHashEv,
                          __ZNK9metaIndex29IsArchitectureAllSupportedForERK11IndexTarget,
                          __ZNK9metaIndex5MergeER17pkgCacheGeneratorP10OpProgress,
                          __ZNK9metaIndex6ExistsERKNSt3__112basic_stringIcNS0_11char_traitsIcEENS0_9allocatorIcEEEE,
                          __ZNK9metaIndex6GetURIEv,
                          __ZNK9metaIndex6LookupERKNSt3__112basic_stringIcNS0_11char_traitsIcEENS0_9allocatorIcEEEE,
                          __ZNK9metaIndex7GetDateEv, __ZNK9metaIndex7GetDistEv, __ZNK9metaIndex7GetTypeEv,
                          __ZNK9metaIndex8DescribeEv, __ZNK9metaIndex8GetSuiteEv, __ZNK9metaIndex8MetaKeysEv,
                          __ZNK9metaIndex9CheckDistERKNSt3__112basic_stringIcNS0_11char_traitsIcEENS0_9allocatorIcEEEE,
                          __ZNK9pkgSystem17GetVersionMappingEj, __ZNK9pkgSystem18MultiArchSupportedEv,
                          __ZNK9pkgSystem22ArchitecturesSupportedEv, __ZTI10SourceCopy, __ZTI10edspSystem, __ZTI10eippSystem,
                          __ZTI10pkgAcqFile, __ZTI10pkgAcquire, __ZTI10pkgRecords, __ZTI10pkgTagFile, __ZTI11DynamicMMap,
                          __ZTI11PackageCopy, __ZTI11pkgAcqIndex, __ZTI11pkgDepCache, __ZTI11pkgSimulate,
                          __ZTI12MD5Summation, __ZTI12pkgAcqMethod, __ZTI12pkgCacheFile, __ZTI12pkgIndexFile,
                          __ZTI12pkgOrderList, __ZTI13SHA1Summation, __ZTI13debListParser, __ZTI13edspLikeIndex,
                          __ZTI13pkgAcqArchive, __ZTI13pkgAcqMetaSig, __ZTI13pkgSourceList, __ZTI13pkgSrcRecords,
                          __ZTI13pkgTagSection, __ZTI14OpTextProgress, __ZTI14debStatusIndex, __ZTI14edspLikeSystem,
                          __ZTI14edspListParser, __ZTI14eippListParser, __ZTI14pkgAcqMetaBase, __ZTI14pkgCdromStatus,
                          __ZTI15debDscFileIndex, __ZTI15debRecordParser, __ZTI15debReleaseIndex, __ZTI15debSourcesIndex,
                          __ZTI15pkgAcqBaseIndex, __ZTI15pkgAcqChangelog, __ZTI15pkgAcqDiffIndex, __ZTI15pkgAcqMetaIndex,
                          __ZTI16TranslationsCopy, __ZTI16debDebFileParser, __ZTI16debPackagesIndex, __ZTI16pkgAcqIndexDiffs,
                          __ZTI16pkgAcquireStatus, __ZTI17pkgArchiveCleaner, __ZTI17pkgCacheGenerator,
                          __ZTI17pkgPackageManager, __ZTI18debDebPkgFileIndex, __ZTI18debSrcRecordParser,
                          __ZTI18edspLikeListParser, __ZTI18pkgAcqMetaClearSig, __ZTI18pkgCacheListParser,
                          __ZTI18pkgDebianIndexFile, __ZTI18pkgProblemResolver, __ZTI19debRecordParserBase,
                          __ZTI19debStatusListParser, __ZTI19debVersioningSystem, __ZTI19pkgUdevCdromDevices,
                          __ZTI19pkgVersioningSystem, __ZTI20debTranslationsIndex, __ZTI21debStringPackageIndex,
                          __ZTI21pkgAcqIndexMergeDiffs, __ZTI21pkgAcqTransactionItem, __ZTI22debDebFileRecordParser,
                          __ZTI22pkgDebianIndexRealFile, __ZTI23debDebianSourceDirIndex, __ZTI24pkgDebianIndexTargetFile,
                          __ZTI4MMap, __ZTI6FileFd, __ZTI6Hashes, __ZTI8pkgCache, __ZTI8pkgCdrom, __ZTI9IndexCopy,
                          __ZTI9SigVerify, __ZTI9debSystem, __ZTI9edspIndex, __ZTI9eippIndex, __ZTI9metaIndex,
                          __ZTI9pkgDPkgPM, __ZTI9pkgPolicy, __ZTI9pkgSystem, __ZTIN10pkgAcquire11UriIteratorE,
                          __ZTIN10pkgAcquire12MethodConfigE, __ZTIN10pkgAcquire4ItemE, __ZTIN10pkgAcquire5QueueE,
                          __ZTIN10pkgAcquire6WorkerE, __ZTIN10pkgRecords6ParserE, __ZTIN11pkgDepCache11ActionGroupE,
                          __ZTIN11pkgDepCache6PolicyE, __ZTIN12pkgAcqMethod11FetchResultE, __ZTIN12pkgAcqMethod9FetchItemE,
                          __ZTIN13Configuration18MatchAgainstConfigE, __ZTIN13pkgSourceList4TypeE,
                          __ZTIN13pkgSrcRecords6ParserE, __ZTIN3APT11CacheFilter10ANDMatcherE,
                          __ZTIN3APT11CacheFilter10NOTMatcherE, __ZTIN3APT11CacheFilter11TrueMatcherE,
                          __ZTIN3APT11CacheFilter12FalseMatcherE, __ZTIN3APT11CacheFilter14PackageMatcherE,
                          __ZTIN3APT11CacheFilter19PackageIsNewInstallE, __ZTIN3APT11CacheFilter23PackageNameMatchesRegExE,
                          __ZTIN3APT11CacheFilter25PackageNameMatchesFnmatchE,
                          __ZTIN3APT11CacheFilter39PackageArchitectureMatchesSpecificationE, __ZTIN3APT11CacheFilter7MatcherE,
                          __ZTIN3APT11CacheFilter9ORMatcherE, __ZTIN3APT14CacheSetHelperE, __ZTIN3APT15PackageUniverseE,
                          __ZTIN3APT25PackageContainerInterfaceE, __ZTIN3APT25VersionContainerInterfaceE,
                          __ZTIN3APT8Progress14PackageManagerE, __ZTIN3APT8Progress18PackageManagerTextE,
                          __ZTIN3APT8Progress19PackageManagerFancyE, __ZTIN3APT8Progress24PackageManagerProgressFdE,
                          __ZTIN3APT8Progress30PackageManagerProgressDeb822FdE, __ZTS10SourceCopy, __ZTS10edspSystem,
                          __ZTS10eippSystem, __ZTS10pkgAcqFile, __ZTS10pkgAcquire, __ZTS10pkgRecords, __ZTS10pkgTagFile,
                          __ZTS11DynamicMMap, __ZTS11PackageCopy, __ZTS11pkgAcqIndex, __ZTS11pkgDepCache,
                          __ZTS11pkgSimulate, __ZTS12MD5Summation, __ZTS12pkgAcqMethod, __ZTS12pkgCacheFile,
                          __ZTS12pkgIndexFile, __ZTS12pkgOrderList, __ZTS13SHA1Summation, __ZTS13debListParser,
                          __ZTS13edspLikeIndex, __ZTS13pkgAcqArchive, __ZTS13pkgAcqMetaSig, __ZTS13pkgSourceList,
                          __ZTS13pkgSrcRecords, __ZTS13pkgTagSection, __ZTS14OpTextProgress, __ZTS14debStatusIndex,
                          __ZTS14edspLikeSystem, __ZTS14edspListParser, __ZTS14eippListParser, __ZTS14pkgAcqMetaBase,
                          __ZTS14pkgCdromStatus, __ZTS15debDscFileIndex, __ZTS15debRecordParser, __ZTS15debReleaseIndex,
                          __ZTS15debSourcesIndex, __ZTS15pkgAcqBaseIndex, __ZTS15pkgAcqChangelog, __ZTS15pkgAcqDiffIndex,
                          __ZTS15pkgAcqMetaIndex, __ZTS16TranslationsCopy, __ZTS16debDebFileParser, __ZTS16debPackagesIndex,
                          __ZTS16pkgAcqIndexDiffs, __ZTS16pkgAcquireStatus, __ZTS17pkgArchiveCleaner,
                          __ZTS17pkgCacheGenerator, __ZTS17pkgPackageManager, __ZTS18debDebPkgFileIndex,
                          __ZTS18debSrcRecordParser, __ZTS18edspLikeListParser, __ZTS18pkgAcqMetaClearSig,
                          __ZTS18pkgCacheListParser, __ZTS18pkgDebianIndexFile, __ZTS18pkgProblemResolver,
                          __ZTS19debRecordParserBase, __ZTS19debStatusListParser, __ZTS19debVersioningSystem,
                          __ZTS19pkgUdevCdromDevices, __ZTS19pkgVersioningSystem, __ZTS20debTranslationsIndex,
                          __ZTS21debStringPackageIndex, __ZTS21pkgAcqIndexMergeDiffs, __ZTS21pkgAcqTransactionItem,
                          __ZTS22debDebFileRecordParser, __ZTS22pkgDebianIndexRealFile, __ZTS23debDebianSourceDirIndex,
                          __ZTS24pkgDebianIndexTargetFile, __ZTS4MMap, __ZTS6FileFd, __ZTS6Hashes, __ZTS8pkgCache,
                          __ZTS8pkgCdrom, __ZTS9IndexCopy, __ZTS9SigVerify, __ZTS9debSystem, __ZTS9edspIndex,
                          __ZTS9eippIndex, __ZTS9metaIndex, __ZTS9pkgDPkgPM, __ZTS9pkgPolicy, __ZTS9pkgSystem,
                          __ZTSN10pkgAcquire11UriIteratorE, __ZTSN10pkgAcquire12MethodConfigE, __ZTSN10pkgAcquire4ItemE,
                          __ZTSN10pkgAcquire5QueueE, __ZTSN10pkgAcquire6WorkerE, __ZTSN10pkgRecords6ParserE,
                          __ZTSN11pkgDepCache11ActionGroupE, __ZTSN11pkgDepCache6PolicyE, __ZTSN12pkgAcqMethod11FetchResultE,
                          __ZTSN12pkgAcqMethod9FetchItemE, __ZTSN13Configuration18MatchAgainstConfigE,
                          __ZTSN13pkgSourceList4TypeE, __ZTSN13pkgSrcRecords6ParserE, __ZTSN3APT11CacheFilter10ANDMatcherE,
                          __ZTSN3APT11CacheFilter10NOTMatcherE, __ZTSN3APT11CacheFilter11TrueMatcherE,
                          __ZTSN3APT11CacheFilter12FalseMatcherE, __ZTSN3APT11CacheFilter14PackageMatcherE,
                          __ZTSN3APT11CacheFilter19PackageIsNewInstallE, __ZTSN3APT11CacheFilter23PackageNameMatchesRegExE,
                          __ZTSN3APT11CacheFilter25PackageNameMatchesFnmatchE,
                          __ZTSN3APT11CacheFilter39PackageArchitectureMatchesSpecificationE, __ZTSN3APT11CacheFilter7MatcherE,
                          __ZTSN3APT11CacheFilter9ORMatcherE, __ZTSN3APT14CacheSetHelperE, __ZTSN3APT15PackageUniverseE,
                          __ZTSN3APT25PackageContainerInterfaceE, __ZTSN3APT25VersionContainerInterfaceE,
                          __ZTSN3APT8Progress14PackageManagerE, __ZTSN3APT8Progress18PackageManagerTextE,
                          __ZTSN3APT8Progress19PackageManagerFancyE, __ZTSN3APT8Progress24PackageManagerProgressFdE,
                          __ZTSN3APT8Progress30PackageManagerProgressDeb822FdE, __ZTV10SourceCopy, __ZTV10edspSystem,
                          __ZTV10eippSystem, __ZTV10pkgAcqFile, __ZTV10pkgAcquire, __ZTV10pkgRecords, __ZTV10pkgTagFile,
                          __ZTV11DynamicMMap, __ZTV11PackageCopy, __ZTV11pkgAcqIndex, __ZTV11pkgDepCache,
                          __ZTV11pkgSimulate, __ZTV12MD5Summation, __ZTV12pkgAcqMethod, __ZTV12pkgCacheFile,
                          __ZTV12pkgIndexFile, __ZTV12pkgOrderList, __ZTV13SHA1Summation, __ZTV13debListParser,
                          __ZTV13edspLikeIndex, __ZTV13pkgAcqArchive, __ZTV13pkgAcqMetaSig, __ZTV13pkgSourceList,
                          __ZTV13pkgSrcRecords, __ZTV13pkgTagSection, __ZTV14OpTextProgress, __ZTV14debStatusIndex,
                          __ZTV14edspLikeSystem, __ZTV14edspListParser, __ZTV14eippListParser, __ZTV14pkgAcqMetaBase,
                          __ZTV14pkgCdromStatus, __ZTV15debDscFileIndex, __ZTV15debRecordParser, __ZTV15debReleaseIndex,
                          __ZTV15debSourcesIndex, __ZTV15pkgAcqBaseIndex, __ZTV15pkgAcqChangelog, __ZTV15pkgAcqDiffIndex,
                          __ZTV15pkgAcqMetaIndex, __ZTV16TranslationsCopy, __ZTV16debDebFileParser, __ZTV16debPackagesIndex,
                          __ZTV16pkgAcqIndexDiffs, __ZTV16pkgAcquireStatus, __ZTV17pkgArchiveCleaner,
                          __ZTV17pkgCacheGenerator, __ZTV17pkgPackageManager, __ZTV18debDebPkgFileIndex,
                          __ZTV18debSrcRecordParser, __ZTV18edspLikeListParser, __ZTV18pkgAcqMetaClearSig,
                          __ZTV18pkgCacheListParser, __ZTV18pkgDebianIndexFile, __ZTV18pkgProblemResolver,
                          __ZTV19debRecordParserBase, __ZTV19debStatusListParser, __ZTV19debVersioningSystem,
                          __ZTV19pkgUdevCdromDevices, __ZTV19pkgVersioningSystem, __ZTV20debTranslationsIndex,
                          __ZTV21debStringPackageIndex, __ZTV21pkgAcqIndexMergeDiffs, __ZTV21pkgAcqTransactionItem,
                          __ZTV22debDebFileRecordParser, __ZTV22pkgDebianIndexRealFile, __ZTV23debDebianSourceDirIndex,
                          __ZTV24pkgDebianIndexTargetFile, __ZTV4MMap, __ZTV6FileFd, __ZTV6Hashes, __ZTV8pkgCache,
                          __ZTV8pkgCdrom, __ZTV9IndexCopy, __ZTV9SigVerify, __ZTV9debSystem, __ZTV9edspIndex,
                          __ZTV9eippIndex, __ZTV9metaIndex, __ZTV9pkgDPkgPM, __ZTV9pkgPolicy, __ZTV9pkgSystem,
                          __ZTVN10pkgAcquire11UriIteratorE, __ZTVN10pkgAcquire12MethodConfigE, __ZTVN10pkgAcquire4ItemE,
                          __ZTVN10pkgAcquire5QueueE, __ZTVN10pkgAcquire6WorkerE, __ZTVN10pkgRecords6ParserE,
                          __ZTVN11pkgDepCache11ActionGroupE, __ZTVN11pkgDepCache6PolicyE, __ZTVN12pkgAcqMethod11FetchResultE,
                          __ZTVN12pkgAcqMethod9FetchItemE, __ZTVN13Configuration18MatchAgainstConfigE,
                          __ZTVN13pkgSourceList4TypeE, __ZTVN13pkgSrcRecords6ParserE, __ZTVN3APT11CacheFilter10ANDMatcherE,
                          __ZTVN3APT11CacheFilter10NOTMatcherE, __ZTVN3APT11CacheFilter11TrueMatcherE,
                          __ZTVN3APT11CacheFilter12FalseMatcherE, __ZTVN3APT11CacheFilter14PackageMatcherE,
                          __ZTVN3APT11CacheFilter19PackageIsNewInstallE, __ZTVN3APT11CacheFilter23PackageNameMatchesRegExE,
                          __ZTVN3APT11CacheFilter25PackageNameMatchesFnmatchE,
                          __ZTVN3APT11CacheFilter39PackageArchitectureMatchesSpecificationE, __ZTVN3APT11CacheFilter7MatcherE,
                          __ZTVN3APT11CacheFilter9ORMatcherE, __ZTVN3APT14CacheSetHelperE, __ZTVN3APT15PackageUniverseE,
                          __ZTVN3APT25PackageContainerInterfaceE, __ZTVN3APT25VersionContainerInterfaceE,
                          __ZTVN3APT8Progress14PackageManagerE, __ZTVN3APT8Progress18PackageManagerTextE,
                          __ZTVN3APT8Progress19PackageManagerFancyE, __ZTVN3APT8Progress24PackageManagerProgressFdE,
                          __ZTVN3APT8Progress30PackageManagerProgressDeb822FdE,
                          __ZlsRNSt3__113basic_ostreamIcNS_11char_traitsIcEEEEN8pkgCache11DepIteratorE,
                          __ZlsRNSt3__113basic_ostreamIcNS_11char_traitsIcEEEEN8pkgCache11PkgIteratorE,
                          __ZlsRNSt3__113basic_ostreamIcNS_11char_traitsIcEEEERKN3APT9PrettyDepE,
                          __ZlsRNSt3__113basic_ostreamIcNS_11char_traitsIcEEEERKN3APT9PrettyPkgE, __apt_DebPkgFile,
                          __apt_DebSrcType, __apt_DebType, __apt_DebianSourceDir, __apt_DscFile, __apt_Edsp, __apt_Eipp,
                          __apt_Pkg, __apt_Src, __apt_Status, __apt_Trans, __config, __system, _debSys, _debVS,
                          _edspSys, _eippSys, _getservbyport_r, _memrchr, _pkgLibVersion, _pkgVersion, _rawmemchr,
                          _strchrnul ]
    weak-def-symbols:   [ __ZGVN17pkgCacheGenerator7DynamicIN3APT10StringViewEE7toReMapE,
                          __ZGVN17pkgCacheGenerator7DynamicIN8pkgCache11DepIteratorEE7toReMapE,
                          __ZGVN17pkgCacheGenerator7DynamicIN8pkgCache11GrpIteratorEE7toReMapE,
                          __ZGVN17pkgCacheGenerator7DynamicIN8pkgCache11PkgIteratorEE7toReMapE,
                          __ZGVN17pkgCacheGenerator7DynamicIN8pkgCache11PrvIteratorEE7toReMapE,
                          __ZGVN17pkgCacheGenerator7DynamicIN8pkgCache11TagIteratorEE7toReMapE,
                          __ZGVN17pkgCacheGenerator7DynamicIN8pkgCache11VerIteratorEE7toReMapE,
                          __ZGVN17pkgCacheGenerator7DynamicIN8pkgCache12DescIteratorEE7toReMapE,
                          __ZGVN17pkgCacheGenerator7DynamicIN8pkgCache15PkgFileIteratorEE7toReMapE,
                          __ZGVN17pkgCacheGenerator7DynamicIN8pkgCache15RlsFileIteratorEE7toReMapE,
                          __ZN17pkgCacheGenerator7DynamicIN3APT10StringViewEE7toReMapE,
                          __ZN17pkgCacheGenerator7DynamicIN8pkgCache11DepIteratorEE7toReMapE,
                          __ZN17pkgCacheGenerator7DynamicIN8pkgCache11GrpIteratorEE7toReMapE,
                          __ZN17pkgCacheGenerator7DynamicIN8pkgCache11PkgIteratorEE7toReMapE,
                          __ZN17pkgCacheGenerator7DynamicIN8pkgCache11PrvIteratorEE7toReMapE,
                          __ZN17pkgCacheGenerator7DynamicIN8pkgCache11TagIteratorEE7toReMapE,
                          __ZN17pkgCacheGenerator7DynamicIN8pkgCache11VerIteratorEE7toReMapE,
                          __ZN17pkgCacheGenerator7DynamicIN8pkgCache12DescIteratorEE7toReMapE,
                          __ZN17pkgCacheGenerator7DynamicIN8pkgCache15PkgFileIteratorEE7toReMapE,
                          __ZN17pkgCacheGenerator7DynamicIN8pkgCache15RlsFileIteratorEE7toReMapE,
                          __ZNKSt3__115basic_stringbufIcNS_11char_traitsIcEENS_9allocatorIcEEE3strEv,
                          __ZNKSt3__16__treeIN8pkgCache11PkgIteratorENS_4lessIS2_EENS_9allocatorIS2_EEE13__lower_boundIS2_EENS_21__tree_const_iteratorIS2_PNS_11__tree_nodeIS2_PvEElEERKT_SD_PNS_15__tree_end_nodeIPNS_16__tree_node_baseISB_EEEE,
                          __ZNKSt3__16__treeIN8pkgCache11PkgIteratorENS_4lessIS2_EENS_9allocatorIS2_EEE4findIS2_EENS_21__tree_const_iteratorIS2_PNS_11__tree_nodeIS2_PvEElEERKT_,
                          __ZNKSt3__16__treeINS_12__value_typeINS_12basic_stringIcNS_11char_traitsIcEENS_9allocatorIcEEEEPN9metaIndex8checkSumEEENS_19__map_value_compareIS7_SB_NS_4lessIS7_EELb1EEENS5_ISB_EEE13__lower_boundIS7_EENS_21__tree_const_iteratorISB_PNS_11__tree_nodeISB_PvEElEERKT_SN_PNS_15__tree_end_nodeIPNS_16__tree_node_baseISL_EEEE,
                          __ZNKSt3__16__treeINS_12__value_typeINS_12basic_stringIcNS_11char_traitsIcEENS_9allocatorIcEEEEPN9metaIndex8checkSumEEENS_19__map_value_compareIS7_SB_NS_4lessIS7_EELb1EEENS5_ISB_EEE4findIS7_EENS_21__tree_const_iteratorISB_PNS_11__tree_nodeISB_PvEElEERKT_,
                          __ZNKSt3__16__treeINS_12__value_typeINS_12basic_stringIcNS_11char_traitsIcEENS_9allocatorIcEEEES7_EENS_19__map_value_compareIS7_S8_NS_4lessIS7_EELb1EEENS5_IS8_EEE13__lower_boundIS7_EENS_21__tree_const_iteratorIS8_PNS_11__tree_nodeIS8_PvEElEERKT_SK_PNS_15__tree_end_nodeIPNS_16__tree_node_baseISI_EEEE,
                          __ZNKSt3__16__treeINS_12__value_typeINS_12basic_stringIcNS_11char_traitsIcEENS_9allocatorIcEEEES7_EENS_19__map_value_compareIS7_S8_NS_4lessIS7_EELb1EEENS5_IS8_EEE4findIS7_EENS_21__tree_const_iteratorIS8_PNS_11__tree_nodeIS8_PvEElEERKT_,
                          __ZNKSt3__16vectorI10HashStringNS_9allocatorIS1_EEE8max_sizeEv,
                          __ZNKSt3__16vectorI11CdromDeviceNS_9allocatorIS1_EEE8max_sizeEv,
                          __ZNKSt3__16vectorI11IndexTargetNS_9allocatorIS1_EEE8max_sizeEv,
                          __ZNKSt3__16vectorI6SrvRecNS_9allocatorIS1_EEE8max_sizeEv,
                          __ZNKSt3__16vectorI8DiffInfoNS_9allocatorIS1_EEE8max_sizeEv,
                          __ZNKSt3__16vectorIN13pkgSrcRecords4FileENS_9allocatorIS2_EEE8max_sizeEv,
                          __ZNKSt3__16vectorIN13pkgSrcRecords5File2ENS_9allocatorIS2_EEE8max_sizeEv,
                          __ZNKSt3__16vectorIN13pkgSrcRecords6Parser11BuildDepRecENS_9allocatorIS3_EEE8max_sizeEv,
                          __ZNKSt3__16vectorIN13pkgTagSection3TagENS_9allocatorIS2_EEE8max_sizeEv,
                          __ZNKSt3__16vectorIN18pkgProblemResolver11PackageKillENS_9allocatorIS2_EEE8max_sizeEv,
                          __ZNKSt3__16vectorIN20pkgTagSectionPrivate7TagDataENS_9allocatorIS2_EEE8max_sizeEv,
                          __ZNKSt3__16vectorIN22debReleaseIndexPrivate15debSectionEntryENS_9allocatorIS2_EEE8max_sizeEv,
                          __ZNKSt3__16vectorIN3APT13Configuration10CompressorENS_9allocatorIS3_EEE8max_sizeEv,
                          __ZNKSt3__16vectorIN8pkgCache11PkgIteratorENS_9allocatorIS2_EEE8max_sizeEv,
                          __ZNKSt3__16vectorIN8pkgCache11VerIteratorENS_9allocatorIS2_EEE8max_sizeEv,
                          __ZNKSt3__16vectorIN9pkgDPkgPM4ItemENS_9allocatorIS2_EEE8max_sizeEv,
                          __ZNKSt3__16vectorIN9pkgDPkgPM9DpkgStateENS_9allocatorIS2_EEE8max_sizeEv,
                          __ZNKSt3__16vectorIN9pkgPolicy3PinENS_9allocatorIS2_EEE8max_sizeEv,
                          __ZNKSt3__16vectorIN9pkgPolicy6PkgPinENS_9allocatorIS2_EEE8max_sizeEv,
                          __ZNKSt3__16vectorINS_12basic_stringIcNS_11char_traitsIcEENS_9allocatorIcEEEENS4_IS6_EEE8max_sizeEv,
                          __ZNKSt3__16vectorINS_4pairIPN9pkgDPkgPM4ItemENS_12basic_stringIcNS_11char_traitsIcEENS_9allocatorIcEEEEEENS8_ISB_EEE8max_sizeEv,
                          __ZNKSt3__16vectorIP12pkgIndexFileNS_9allocatorIS2_EEE8max_sizeEv,
                          __ZNKSt3__16vectorIP21pkgAcqIndexMergeDiffsNS_9allocatorIS2_EEE8max_sizeEv,
                          __ZNKSt3__16vectorIP21pkgAcqTransactionItemNS_9allocatorIS2_EEE8max_sizeEv,
                          __ZNKSt3__16vectorIP7regex_tNS_9allocatorIS2_EEE8max_sizeEv,
                          __ZNKSt3__16vectorIP9metaIndexNS_9allocatorIS2_EEE8max_sizeEv,
                          __ZNKSt3__16vectorIPKcNS_9allocatorIS2_EEE8max_sizeEv,
                          __ZNKSt3__16vectorIPN10pkgAcquire4ItemENS_9allocatorIS3_EEE8max_sizeEv,
                          __ZNKSt3__16vectorIPN10pkgRecords6ParserENS_9allocatorIS3_EEE8max_sizeEv,
                          __ZNKSt3__16vectorIPN13pkgSrcRecords6ParserENS_9allocatorIS3_EEE8max_sizeEv,
                          __ZNKSt3__16vectorIPN3APT10StringViewENS_9allocatorIS3_EEE8max_sizeEv,
                          __ZNKSt3__16vectorIPN3APT11CacheFilter7MatcherENS_9allocatorIS4_EEE8max_sizeEv,
                          __ZNKSt3__16vectorIPN3APT8Progress19PackageManagerFancyENS_9allocatorIS4_EEE8max_sizeEv,
                          __ZNKSt3__16vectorIPN8pkgCache11DepIteratorENS_9allocatorIS3_EEE8max_sizeEv,
                          __ZNKSt3__16vectorIPN8pkgCache11GrpIteratorENS_9allocatorIS3_EEE8max_sizeEv,
                          __ZNKSt3__16vectorIPN8pkgCache11PkgIteratorENS_9allocatorIS3_EEE8max_sizeEv,
                          __ZNKSt3__16vectorIPN8pkgCache11PrvIteratorENS_9allocatorIS3_EEE8max_sizeEv,
                          __ZNKSt3__16vectorIPN8pkgCache11VerIteratorENS_9allocatorIS3_EEE8max_sizeEv,
                          __ZNKSt3__16vectorIPN8pkgCache12DescIteratorENS_9allocatorIS3_EEE8max_sizeEv,
                          __ZNKSt3__16vectorIPN8pkgCache15PkgFileIteratorENS_9allocatorIS3_EEE8max_sizeEv,
                          __ZNKSt3__16vectorIPN8pkgCache15RlsFileIteratorENS_9allocatorIS3_EEE8max_sizeEv,
                          __ZNKSt3__16vectorIPcNS_9allocatorIS1_EEE8max_sizeEv, __ZNKSt3__16vectorIbNS_9allocatorIbEEE8max_sizeEv,
                          __ZNKSt3__16vectorIcNS_9allocatorIcEEE8max_sizeEv, __ZNKSt3__16vectorIlNS_9allocatorIlEEE8max_sizeEv,
                          __ZNSt3__110__find_endIPFbccEPKcS4_EET0_S5_S5_T1_S6_T_NS_26random_access_iterator_tagES8_,
                          __ZNSt3__110__list_impIN11GlobalError4ItemENS_9allocatorIS2_EEE5clearEv,
                          __ZNSt3__110__list_impIN11GlobalError8MsgStackENS_9allocatorIS2_EEE5clearEv,
                          __ZNSt3__110__list_impIN8pkgCache11DepIteratorENS_9allocatorIS2_EEE5clearEv,
                          __ZNSt3__110__list_impIN8pkgCache11PkgIteratorENS_9allocatorIS2_EEE5clearEv,
                          __ZNSt3__110__list_impIN8pkgCache11VerIteratorENS_9allocatorIS2_EEE5clearEv,
                          __ZNSt3__110__list_impINS_12basic_stringIcNS_11char_traitsIcEENS_9allocatorIcEEEENS4_IS6_EEE5clearEv,
                          __ZNSt3__110__list_impINS_4pairIN8pkgCache11VerIteratorES3_EENS_9allocatorIS4_EEE5clearEv,
                          __ZNSt3__110__list_impINS_4pairINS_12basic_stringIcNS_11char_traitsIcEENS_9allocatorIcEEEEN4EIPP10PKG_ACTIONEEENS5_ISA_EEE5clearEv,
                          __ZNSt3__112__deque_baseINS_12basic_stringIcNS_11char_traitsIcEENS_9allocatorIcEEEENS4_IS6_EEE3endEv,
                          __ZNSt3__112__deque_baseINS_12basic_stringIcNS_11char_traitsIcEENS_9allocatorIcEEEENS4_IS6_EEE5beginEv,
                          __ZNSt3__112__deque_baseINS_12basic_stringIcNS_11char_traitsIcEENS_9allocatorIcEEEENS4_IS6_EEE5clearEv,
                          __ZNSt3__112__hash_tableIN17pkgCacheGenerator14string_pointerENS1_4hashENS_8equal_toIS2_EENS_9allocatorIS2_EEE17__deallocate_nodeEPNS_16__hash_node_baseIPNS_11__hash_nodeIS2_PvEEEE,
                          __ZNSt3__112__hash_tableIN17pkgCacheGenerator14string_pointerENS1_4hashENS_8equal_toIS2_EENS_9allocatorIS2_EEE21__construct_node_hashIS2_JEEENS_10unique_ptrINS_11__hash_nodeIS2_PvEENS_22__hash_node_destructorINS6_ISD_EEEEEEmOT_DpOT0_,
                          __ZNSt3__112__hash_tableIN17pkgCacheGenerator14string_pointerENS1_4hashENS_8equal_toIS2_EENS_9allocatorIS2_EEE4findIS2_EENS_15__hash_iteratorIPNS_11__hash_nodeIS2_PvEEEERKT_,
                          __ZNSt3__112__hash_tableIN17pkgCacheGenerator14string_pointerENS1_4hashENS_8equal_toIS2_EENS_9allocatorIS2_EEE6rehashEm,
                          __ZNSt3__112__hash_tableIN17pkgCacheGenerator14string_pointerENS1_4hashENS_8equal_toIS2_EENS_9allocatorIS2_EEE8__rehashEm,
                          __ZNSt3__112__hash_tableIPvNS_4hashIS1_EENS_8equal_toIS1_EENS_9allocatorIS1_EEE17__deallocate_nodeEPNS_16__hash_node_baseIPNS_11__hash_nodeIS1_S1_EEEE,
                          __ZNSt3__112__hash_tableIPvNS_4hashIS1_EENS_8equal_toIS1_EENS_9allocatorIS1_EEE21__construct_node_hashIS1_JEEENS_10unique_ptrINS_11__hash_nodeIS1_S1_EENS_22__hash_node_destructorINS6_ISC_EEEEEEmOT_DpOT0_,
                          __ZNSt3__112__hash_tableIPvNS_4hashIS1_EENS_8equal_toIS1_EENS_9allocatorIS1_EEE6rehashEm,
                          __ZNSt3__112__hash_tableIPvNS_4hashIS1_EENS_8equal_toIS1_EENS_9allocatorIS1_EEE8__rehashEm,
                          __ZNSt3__112__hash_tableIjNS_4hashIjEENS_8equal_toIjEENS_9allocatorIjEEE17__deallocate_nodeEPNS_16__hash_node_baseIPNS_11__hash_nodeIjPvEEEE,
                          __ZNSt3__112__hash_tableIjNS_4hashIjEENS_8equal_toIjEENS_9allocatorIjEEE21__construct_node_hashIRKjJEEENS_10unique_ptrINS_11__hash_nodeIjPvEENS_22__hash_node_destructorINS5_ISE_EEEEEEmOT_DpOT0_,
                          __ZNSt3__112__hash_tableIjNS_4hashIjEENS_8equal_toIjEENS_9allocatorIjEEE4findIjEENS_15__hash_iteratorIPNS_11__hash_nodeIjPvEEEERKT_,
                          __ZNSt3__112__hash_tableIjNS_4hashIjEENS_8equal_toIjEENS_9allocatorIjEEE6rehashEm,
                          __ZNSt3__112__hash_tableIjNS_4hashIjEENS_8equal_toIjEENS_9allocatorIjEEE8__rehashEm,
                          __ZNSt3__112basic_stringIcNS_11char_traitsIcEENS_9allocatorIcEEE6assignINS_11__wrap_iterIPKcEEEENS_9enable_ifIXaasr21__is_forward_iteratorIT_EE5valuesr38__libcpp_string_gets_noexcept_iteratorISC_EE5valueERS5_E4typeESC_SC_,
                          __ZNSt3__113__fill_n_trueINS_6vectorIbNS_9allocatorIbEEEEEEvNS_14__bit_iteratorIT_Lb0EXLi0EEEENS6_9size_typeE,
                          __ZNSt3__113__lower_boundIRNS_6__lessI6SrvRecS2_EENS_11__wrap_iterIPS2_EES2_EET0_S8_S8_RKT1_T_,
                          __ZNSt3__113__stable_sortIRNS_6__lessI6SrvRecS2_EENS_11__wrap_iterIPS2_EEEEvT0_S8_T_NS_15iterator_traitsIS8_E15difference_typeEPNSB_10value_typeEl,
                          __ZNSt3__113__upper_boundIRNS_6__lessI6SrvRecS2_EENS_11__wrap_iterIPS2_EES2_EET0_S8_S8_RKT1_T_,
                          __ZNSt3__113basic_filebufIcNS_11char_traitsIcEEE11__read_modeEv,
                          __ZNSt3__113basic_filebufIcNS_11char_traitsIcEEE12__write_modeEv,
                          __ZNSt3__113basic_filebufIcNS_11char_traitsIcEEE4openEPKcj,
                          __ZNSt3__113basic_filebufIcNS_11char_traitsIcEEE5closeEv,
                          __ZNSt3__113basic_istreamIcNS_11char_traitsIcEEE7getlineEPclc,
                          __ZNSt3__113basic_istreamIcNS_11char_traitsIcEEErsERi,
                          __ZNSt3__113basic_istreamIcNS_11char_traitsIcEEErsERt,
                          __ZNSt3__113basic_istreamIcNS_11char_traitsIcEEErsERy,
                          __ZNSt3__113basic_ostreamIcNS_11char_traitsIcEEE3putEc,
                          __ZNSt3__113basic_ostreamIcNS_11char_traitsIcEEE5flushEv,
                          __ZNSt3__113basic_ostreamIcNS_11char_traitsIcEEElsEPKv,
                          __ZNSt3__113basic_ostreamIcNS_11char_traitsIcEEElsEb,
                          __ZNSt3__113basic_ostreamIcNS_11char_traitsIcEEElsEd,
                          __ZNSt3__113basic_ostreamIcNS_11char_traitsIcEEElsEf,
                          __ZNSt3__113basic_ostreamIcNS_11char_traitsIcEEElsEi,
                          __ZNSt3__113basic_ostreamIcNS_11char_traitsIcEEElsEj,
                          __ZNSt3__113basic_ostreamIcNS_11char_traitsIcEEElsEl,
                          __ZNSt3__113basic_ostreamIcNS_11char_traitsIcEEElsEm,
                          __ZNSt3__113basic_ostreamIcNS_11char_traitsIcEEElsEs,
                          __ZNSt3__113basic_ostreamIcNS_11char_traitsIcEEElsEt,
                          __ZNSt3__113basic_ostreamIcNS_11char_traitsIcEEElsEx,
                          __ZNSt3__113basic_ostreamIcNS_11char_traitsIcEEElsEy,
                          __ZNSt3__114__fill_n_falseINS_6vectorIbNS_9allocatorIbEEEEEEvNS_14__bit_iteratorIT_Lb0EXLi0EEEENS6_9size_typeE,
                          __ZNSt3__114__split_bufferIN18pkgProblemResolver11PackageKillERNS_9allocatorIS2_EEE18__construct_at_endEm,
                          __ZNSt3__114__split_bufferIN9pkgDPkgPM9DpkgStateERNS_9allocatorIS2_EEE18__construct_at_endINS_13move_iteratorIPS2_EEEENS_9enable_ifIXsr21__is_forward_iteratorIT_EE5valueEvE4typeESC_SC_,
                          __ZNSt3__114__split_bufferIN9pkgDPkgPM9DpkgStateERNS_9allocatorIS2_EEE9push_backEOS2_,
                          __ZNSt3__114__split_bufferIN9pkgPolicy3PinERNS_9allocatorIS2_EEE18__construct_at_endINS_13move_iteratorIPS2_EEEENS_9enable_ifIXsr21__is_forward_iteratorIT_EE5valueEvE4typeESC_SC_,
                          __ZNSt3__114__split_bufferIN9pkgPolicy3PinERNS_9allocatorIS2_EEE9push_backEOS2_,
                          __ZNSt3__114__split_bufferIN9pkgPolicy6PkgPinERNS_9allocatorIS2_EEE18__construct_at_endINS_13move_iteratorIPS2_EEEENS_9enable_ifIXsr21__is_forward_iteratorIT_EE5valueEvE4typeESC_SC_,
                          __ZNSt3__114__split_bufferIN9pkgPolicy6PkgPinERNS_9allocatorIS2_EEE9push_backEOS2_,
                          __ZNSt3__114__split_bufferINS_12basic_stringIcNS_11char_traitsIcEENS_9allocatorIcEEEERNS4_IS6_EEE18__construct_at_endINS_13move_iteratorIPS6_EEEENS_9enable_ifIXsr21__is_forward_iteratorIT_EE5valueEvE4typeESF_SF_,
                          __ZNSt3__114__split_bufferIPNS_12basic_stringIcNS_11char_traitsIcEENS_9allocatorIcEEEENS4_IS7_EEE10push_frontEOS7_,
                          __ZNSt3__114__split_bufferIPNS_12basic_stringIcNS_11char_traitsIcEENS_9allocatorIcEEEENS4_IS7_EEE9push_backEOS7_,
                          __ZNSt3__114__split_bufferIPNS_12basic_stringIcNS_11char_traitsIcEENS_9allocatorIcEEEERNS4_IS7_EEE10push_frontERKS7_,
                          __ZNSt3__114__split_bufferIPNS_12basic_stringIcNS_11char_traitsIcEENS_9allocatorIcEEEERNS4_IS7_EEE18__construct_at_endINS_13move_iteratorIPS7_EEEENS_9enable_ifIXsr21__is_forward_iteratorIT_EE5valueEvE4typeESG_SG_,
                          __ZNSt3__114__split_bufferIPNS_12basic_stringIcNS_11char_traitsIcEENS_9allocatorIcEEEERNS4_IS7_EEE9push_backEOS7_,
                          __ZNSt3__115__inplace_mergeIRNS_6__lessI6SrvRecS2_EENS_11__wrap_iterIPS2_EEEEvT0_S8_S8_T_NS_15iterator_traitsIS8_E15difference_typeESC_PNSB_10value_typeEl,
                          __ZNSt3__115basic_stringbufIcNS_11char_traitsIcEENS_9allocatorIcEEE3strERKNS_12basic_stringIcS2_S4_EE,
                          __ZNSt3__116__find_bool_trueINS_6vectorIbNS_9allocatorIbEEEELb0EEENS_14__bit_iteratorIT_XT0_EXLi0EEEES7_NS6_9size_typeE,
                          __ZNSt3__116__insertion_sortIRNS_6__lessI6SrvRecS2_EENS_11__wrap_iterIPS2_EEEEvT0_S8_T_,
                          __ZNSt3__116__rotate_forwardINS_11__wrap_iterIP6SrvRecEEEET_S5_S5_S5_,
                          __ZNSt3__117__find_bool_falseINS_6vectorIbNS_9allocatorIbEEEELb0EEENS_14__bit_iteratorIT_XT0_EXLi0EEEES7_NS6_9size_typeE,
                          __ZNSt3__118__find_first_of_ceIPKcS2_PFbccEEET_S5_S5_T0_S6_T1_,
                          __ZNSt3__118__insertion_sort_3IR8PrioCompPPN8pkgCache7VersionEEEvT0_S7_T_,
                          __ZNSt3__118__insertion_sort_3IRNS_6__lessINS_12basic_stringIcNS_11char_traitsIcEENS_9allocatorIcEEEES7_EEPS7_EEvT0_SB_T_,
                          __ZNSt3__118__stable_sort_moveIRNS_6__lessI6SrvRecS2_EENS_11__wrap_iterIPS2_EEEEvT0_S8_T_NS_15iterator_traitsIS8_E15difference_typeEPNSB_10value_typeE,
                          __ZNSt3__118__tree_left_rotateIPNS_16__tree_node_baseIPvEEEEvT_,
                          __ZNSt3__119__merge_move_assignIRNS_6__lessI6SrvRecS2_EEPS2_S5_NS_11__wrap_iterIS5_EEEEvT0_S8_T1_S9_T2_T_,
                          __ZNSt3__119__tree_right_rotateIPNS_16__tree_node_baseIPvEEEEvT_,
                          __ZNSt3__120__half_inplace_mergeINS_6__lessI6SrvRecS2_EEPS2_NS_11__wrap_iterIS4_EES6_EEvT0_S7_T1_S8_T2_T_,
                          __ZNSt3__120__half_inplace_mergeINS_8__negateIRNS_6__lessI6SrvRecS3_EEEENS_16reverse_iteratorIPS3_EENS7_INS_11__wrap_iterIS8_EEEESC_EEvT0_SD_T1_SE_T2_T_,
                          __ZNSt3__120get_temporary_bufferI6SrvRecEENS_4pairIPT_lEEl,
                          __ZNSt3__121__insertion_sort_moveIRNS_6__lessI6SrvRecS2_EENS_11__wrap_iterIPS2_EEEEvT0_S8_PNS_15iterator_traitsIS8_E10value_typeET_,
                          __ZNSt3__121__murmur2_or_cityhashImLm64EEclEPKvm,
                          __ZNSt3__122__merge_move_constructIRNS_6__lessI6SrvRecS2_EENS_11__wrap_iterIPS2_EES7_EEvT0_S8_T1_S9_PNS_15iterator_traitsIS8_E10value_typeET_,
                          __ZNSt3__124__buffered_inplace_mergeIRNS_6__lessI6SrvRecS2_EENS_11__wrap_iterIPS2_EEEEvT0_S8_S8_T_NS_15iterator_traitsIS8_E15difference_typeESC_PNSB_10value_typeE,
                          __ZNSt3__124__put_character_sequenceIcNS_11char_traitsIcEEEERNS_13basic_ostreamIT_T0_EES7_PKS4_m,
                          __ZNSt3__124uniform_int_distributionIlEclINS_26linear_congruential_engineIjLj48271ELj0ELj2147483647EEEEElRT_RKNS1_10param_typeE,
                          __ZNSt3__125__independent_bits_engineINS_26linear_congruential_engineIjLj48271ELj0ELj2147483647EEEyE6__evalENS_17integral_constantIbLb1EEE,
                          __ZNSt3__127__insertion_sort_incompleteIR8PrioCompPPN8pkgCache7VersionEEEbT0_S7_T_,
                          __ZNSt3__127__insertion_sort_incompleteIRNS_6__lessINS_12basic_stringIcNS_11char_traitsIcEENS_9allocatorIcEEEES7_EEPS7_EEbT0_SB_T_,
                          __ZNSt3__127__tree_balance_after_insertIPNS_16__tree_node_baseIPvEEEEvT_S5_,
                          __ZNSt3__13mapINS_12basic_stringIcNS_11char_traitsIcEENS_9allocatorIcEEEENS_6vectorIN9pkgDPkgPM9DpkgStateENS4_IS9_EEEENS_4lessIS6_EENS4_INS_4pairIKS6_SB_EEEEEixEOS6_,
                          __ZNSt3__13mapINS_12basic_stringIcNS_11char_traitsIcEENS_9allocatorIcEEEENS_6vectorIN9pkgDPkgPM9DpkgStateENS4_IS9_EEEENS_4lessIS6_EENS4_INS_4pairIKS6_SB_EEEEEixERSF_,
                          __ZNSt3__13mapINS_12basic_stringIcNS_11char_traitsIcEENS_9allocatorIcEEEEPN9metaIndex8checkSumENS_4lessIS6_EENS4_INS_4pairIKS6_S9_EEEEEixERSD_,
                          __ZNSt3__13mapINS_12basic_stringIcNS_11char_traitsIcEENS_9allocatorIcEEEES6_NS_4lessIS6_EENS4_INS_4pairIKS6_S6_EEEEEixEOS6_,
                          __ZNSt3__13mapINS_12basic_stringIcNS_11char_traitsIcEENS_9allocatorIcEEEES6_NS_4lessIS6_EENS4_INS_4pairIKS6_S6_EEEEEixERSA_,
                          __ZNSt3__13mapINS_12basic_stringIcNS_11char_traitsIcEENS_9allocatorIcEEEEiNS_4lessIS6_EENS4_INS_4pairIKS6_iEEEEEixERSA_,
                          __ZNSt3__13mapINS_12basic_stringIcNS_11char_traitsIcEENS_9allocatorIcEEEEjNS_4lessIS6_EENS4_INS_4pairIKS6_jEEEEEixEOS6_,
                          __ZNSt3__13mapINS_12basic_stringIcNS_11char_traitsIcEENS_9allocatorIcEEEEjNS_4lessIS6_EENS4_INS_4pairIKS6_jEEEEEixERSA_,
                          __ZNSt3__14listIN11GlobalError4ItemENS_9allocatorIS2_EEE10push_frontERKS2_,
                          __ZNSt3__14listIN11GlobalError4ItemENS_9allocatorIS2_EEE5eraseENS_21__list_const_iteratorIS2_PvEES8_,
                          __ZNSt3__14listIN11GlobalError4ItemENS_9allocatorIS2_EEE6assignINS_21__list_const_iteratorIS2_PvEEEEvT_SA_PNS_9enable_ifIXsr19__is_input_iteratorISA_EE5valueEvE4typeE,
                          __ZNSt3__14listIN11GlobalError4ItemENS_9allocatorIS2_EEE6insertINS_21__list_const_iteratorIS2_PvEEEENS_15__list_iteratorIS2_S8_EES9_T_SC_PNS_9enable_ifIXsr19__is_input_iteratorISC_EE5valueEvE4typeE,
                          __ZNSt3__14listIN11GlobalError4ItemENS_9allocatorIS2_EEE6spliceENS_21__list_const_iteratorIS2_PvEERS5_,
                          __ZNSt3__14listIN11GlobalError4ItemENS_9allocatorIS2_EEE9pop_frontEv,
                          __ZNSt3__14listIN11GlobalError4ItemENS_9allocatorIS2_EEE9push_backERKS2_,
                          __ZNSt3__14listIN11GlobalError8MsgStackENS_9allocatorIS2_EEE12emplace_backIJRNS0_INS1_4ItemENS3_IS7_EEEERbEEEvDpOT_,
                          __ZNSt3__14listIN11GlobalError8MsgStackENS_9allocatorIS2_EEE8pop_backEv,
                          __ZNSt3__14listIN8pkgCache11DepIteratorENS_9allocatorIS2_EEE9push_backERKS2_,
                          __ZNSt3__14listIN8pkgCache11PkgIteratorENS_9allocatorIS2_EEE9push_backERKS2_,
                          __ZNSt3__14listIN8pkgCache11VerIteratorENS_9allocatorIS2_EEE5eraseENS_21__list_const_iteratorIS2_PvEE,
                          __ZNSt3__14listIN8pkgCache11VerIteratorENS_9allocatorIS2_EEE9push_backERKS2_,
                          __ZNSt3__14listINS_12basic_stringIcNS_11char_traitsIcEENS_9allocatorIcEEEENS4_IS6_EEE9push_backERKS6_,
                          __ZNSt3__14listINS_4pairIN8pkgCache11VerIteratorES3_EENS_9allocatorIS4_EEE5eraseENS_21__list_const_iteratorIS4_PvEESA_,
                          __ZNSt3__14listINS_4pairIN8pkgCache11VerIteratorES3_EENS_9allocatorIS4_EEE8pop_backEv,
                          __ZNSt3__14listINS_4pairIN8pkgCache11VerIteratorES3_EENS_9allocatorIS4_EEE9push_backEOS4_,
                          __ZNSt3__14listINS_4pairINS_12basic_stringIcNS_11char_traitsIcEENS_9allocatorIcEEEEN4EIPP10PKG_ACTIONEEENS5_ISA_EEE12emplace_backIJS7_RS9_EEEvDpOT_,
                          __ZNSt3__15dequeINS_12basic_stringIcNS_11char_traitsIcEENS_9allocatorIcEEEENS4_IS6_EEE19__add_back_capacityEv,
                          __ZNSt3__15dequeINS_12basic_stringIcNS_11char_traitsIcEENS_9allocatorIcEEEENS4_IS6_EEE8pop_backEv,
                          __ZNSt3__15dequeINS_12basic_stringIcNS_11char_traitsIcEENS_9allocatorIcEEEENS4_IS6_EEE9push_backERKS6_,
                          __ZNSt3__16__sortIR8PrioCompPPN8pkgCache7VersionEEEvT0_S7_T_,
                          __ZNSt3__16__sortIRNS_6__lessINS_12basic_stringIcNS_11char_traitsIcEENS_9allocatorIcEEEES7_EEPS7_EEvT0_SB_T_,
                          __ZNSt3__16__treeIN8pkgCache11PkgIteratorENS_4lessIS2_EENS_9allocatorIS2_EEE12__find_equalIS2_EERPNS_16__tree_node_baseIPvEERPNS_15__tree_end_nodeISC_EERKT_,
                          __ZNSt3__16__treeIN8pkgCache11PkgIteratorENS_4lessIS2_EENS_9allocatorIS2_EEE16__construct_nodeIJRKS2_EEENS_10unique_ptrINS_11__tree_nodeIS2_PvEENS_22__tree_node_destructorINS5_ISE_EEEEEEDpOT_,
                          __ZNSt3__16__treeIN8pkgCache11PkgIteratorENS_4lessIS2_EENS_9allocatorIS2_EEE16__insert_node_atEPNS_15__tree_end_nodeIPNS_16__tree_node_baseIPvEEEERSC_SC_,
                          __ZNSt3__16__treeIN8pkgCache11PkgIteratorENS_4lessIS2_EENS_9allocatorIS2_EEE25__emplace_unique_key_argsIS2_JRKS2_EEENS_4pairINS_15__tree_iteratorIS2_PNS_11__tree_nodeIS2_PvEElEEbEERKT_DpOT0_,
                          __ZNSt3__16__treeIN8pkgCache11PkgIteratorENS_4lessIS2_EENS_9allocatorIS2_EEE5clearEv,
                          __ZNSt3__16__treeIN8pkgCache11PkgIteratorENS_4lessIS2_EENS_9allocatorIS2_EEE7destroyEPNS_11__tree_nodeIS2_PvEE,
                          __ZNSt3__16__treeINS_12__value_typeIKPKcNS_4pairIS4_bEEEENS_19__map_value_compareIS4_S7_NS_4lessIS4_EELb1EEENS_9allocatorIS7_EEE12__find_equalIS7_EERPNS_16__tree_node_baseIPvEERPNS_15__tree_end_nodeISJ_EERKT_,
                          __ZNSt3__16__treeINS_12__value_typeIKPKcNS_4pairIS4_bEEEENS_19__map_value_compareIS4_S7_NS_4lessIS4_EELb1EEENS_9allocatorIS7_EEE16__construct_nodeIJNS5_IS3_NS5_IS3_bEEEEEEENS_10unique_ptrINS_11__tree_nodeIS7_PvEENS_22__tree_node_destructorINSC_ISL_EEEEEEDpOT_,
                          __ZNSt3__16__treeINS_12__value_typeIKPKcNS_4pairIS4_bEEEENS_19__map_value_compareIS4_S7_NS_4lessIS4_EELb1EEENS_9allocatorIS7_EEE16__insert_node_atEPNS_15__tree_end_nodeIPNS_16__tree_node_baseIPvEEEERSJ_SJ_,
                          __ZNSt3__16__treeINS_12__value_typeIKPKcNS_4pairIS4_bEEEENS_19__map_value_compareIS4_S7_NS_4lessIS4_EELb1EEENS_9allocatorIS7_EEE21__emplace_unique_implIJNS5_IS3_NS5_IS3_bEEEEEEENS5_INS_15__tree_iteratorIS7_PNS_11__tree_nodeIS7_PvEElEEbEEDpOT_,
                          __ZNSt3__16__treeINS_12__value_typeIKPKcNS_4pairIS4_bEEEENS_19__map_value_compareIS4_S7_NS_4lessIS4_EELb1EEENS_9allocatorIS7_EEE7destroyEPNS_11__tree_nodeIS7_PvEE,
                          __ZNSt3__16__treeINS_12__value_typeINS_12basic_stringIcNS_11char_traitsIcEENS_9allocatorIcEEEENS_6vectorIN9pkgDPkgPM9DpkgStateENS5_ISA_EEEEEENS_19__map_value_compareIS7_SD_NS_4lessIS7_EELb1EEENS5_ISD_EEE12__find_equalIS7_EERPNS_16__tree_node_baseIPvEERPNS_15__tree_end_nodeISO_EERKT_,
                          __ZNSt3__16__treeINS_12__value_typeINS_12basic_stringIcNS_11char_traitsIcEENS_9allocatorIcEEEENS_6vectorIN9pkgDPkgPM9DpkgStateENS5_ISA_EEEEEENS_19__map_value_compareIS7_SD_NS_4lessIS7_EELb1EEENS5_ISD_EEE13__lower_boundIS7_EENS_15__tree_iteratorISD_PNS_11__tree_nodeISD_PvEElEERKT_SP_PNS_15__tree_end_nodeIPNS_16__tree_node_baseISN_EEEE,
                          __ZNSt3__16__treeINS_12__value_typeINS_12basic_stringIcNS_11char_traitsIcEENS_9allocatorIcEEEENS_6vectorIN9pkgDPkgPM9DpkgStateENS5_ISA_EEEEEENS_19__map_value_compareIS7_SD_NS_4lessIS7_EELb1EEENS5_ISD_EEE16__construct_nodeIJRKNS_21piecewise_construct_tENS_5tupleIJOS7_EEENSO_IJEEEEEENS_10unique_ptrINS_11__tree_nodeISD_PvEENS_22__tree_node_destructorINS5_ISV_EEEEEEDpOT_,
                          __ZNSt3__16__treeINS_12__value_typeINS_12basic_stringIcNS_11char_traitsIcEENS_9allocatorIcEEEENS_6vectorIN9pkgDPkgPM9DpkgStateENS5_ISA_EEEEEENS_19__map_value_compareIS7_SD_NS_4lessIS7_EELb1EEENS5_ISD_EEE16__construct_nodeIJRKNS_21piecewise_construct_tENS_5tupleIJRKS7_EEENSO_IJEEEEEENS_10unique_ptrINS_11__tree_nodeISD_PvEENS_22__tree_node_destructorINS5_ISW_EEEEEEDpOT_,
                          __ZNSt3__16__treeINS_12__value_typeINS_12basic_stringIcNS_11char_traitsIcEENS_9allocatorIcEEEENS_6vectorIN9pkgDPkgPM9DpkgStateENS5_ISA_EEEEEENS_19__map_value_compareIS7_SD_NS_4lessIS7_EELb1EEENS5_ISD_EEE16__insert_node_atEPNS_15__tree_end_nodeIPNS_16__tree_node_baseIPvEEEERSO_SO_,
                          __ZNSt3__16__treeINS_12__value_typeINS_12basic_stringIcNS_11char_traitsIcEENS_9allocatorIcEEEENS_6vectorIN9pkgDPkgPM9DpkgStateENS5_ISA_EEEEEENS_19__map_value_compareIS7_SD_NS_4lessIS7_EELb1EEENS5_ISD_EEE25__emplace_unique_key_argsIS7_JRKNS_21piecewise_construct_tENS_5tupleIJOS7_EEENSO_IJEEEEEENS_4pairINS_15__tree_iteratorISD_PNS_11__tree_nodeISD_PvEElEEbEERKT_DpOT0_,
                          __ZNSt3__16__treeINS_12__value_typeINS_12basic_stringIcNS_11char_traitsIcEENS_9allocatorIcEEEENS_6vectorIN9pkgDPkgPM9DpkgStateENS5_ISA_EEEEEENS_19__map_value_compareIS7_SD_NS_4lessIS7_EELb1EEENS5_ISD_EEE25__emplace_unique_key_argsIS7_JRKNS_21piecewise_construct_tENS_5tupleIJRKS7_EEENSO_IJEEEEEENS_4pairINS_15__tree_iteratorISD_PNS_11__tree_nodeISD_PvEElEEbEERKT_DpOT0_,
                          __ZNSt3__16__treeINS_12__value_typeINS_12basic_stringIcNS_11char_traitsIcEENS_9allocatorIcEEEENS_6vectorIN9pkgDPkgPM9DpkgStateENS5_ISA_EEEEEENS_19__map_value_compareIS7_SD_NS_4lessIS7_EELb1EEENS5_ISD_EEE4findIS7_EENS_15__tree_iteratorISD_PNS_11__tree_nodeISD_PvEElEERKT_,
                          __ZNSt3__16__treeINS_12__value_typeINS_12basic_stringIcNS_11char_traitsIcEENS_9allocatorIcEEEENS_6vectorIN9pkgDPkgPM9DpkgStateENS5_ISA_EEEEEENS_19__map_value_compareIS7_SD_NS_4lessIS7_EELb1EEENS5_ISD_EEE7destroyEPNS_11__tree_nodeISD_PvEE,
                          __ZNSt3__16__treeINS_12__value_typeINS_12basic_stringIcNS_11char_traitsIcEENS_9allocatorIcEEEEPN9metaIndex8checkSumEEENS_19__map_value_compareIS7_SB_NS_4lessIS7_EELb1EEENS5_ISB_EEE12__find_equalIS7_EERPNS_16__tree_node_baseIPvEERPNS_15__tree_end_nodeISM_EERKT_,
                          __ZNSt3__16__treeINS_12__value_typeINS_12basic_stringIcNS_11char_traitsIcEENS_9allocatorIcEEEEPN9metaIndex8checkSumEEENS_19__map_value_compareIS7_SB_NS_4lessIS7_EELb1EEENS5_ISB_EEE13__lower_boundIS7_EENS_15__tree_iteratorISB_PNS_11__tree_nodeISB_PvEElEERKT_SN_PNS_15__tree_end_nodeIPNS_16__tree_node_baseISL_EEEE,
                          __ZNSt3__16__treeINS_12__value_typeINS_12basic_stringIcNS_11char_traitsIcEENS_9allocatorIcEEEEPN9metaIndex8checkSumEEENS_19__map_value_compareIS7_SB_NS_4lessIS7_EELb1EEENS5_ISB_EEE16__construct_nodeIJRKNS_21piecewise_construct_tENS_5tupleIJRKS7_EEENSM_IJEEEEEENS_10unique_ptrINS_11__tree_nodeISB_PvEENS_22__tree_node_destructorINS5_ISU_EEEEEEDpOT_,
                          __ZNSt3__16__treeINS_12__value_typeINS_12basic_stringIcNS_11char_traitsIcEENS_9allocatorIcEEEEPN9metaIndex8checkSumEEENS_19__map_value_compareIS7_SB_NS_4lessIS7_EELb1EEENS5_ISB_EEE16__insert_node_atEPNS_15__tree_end_nodeIPNS_16__tree_node_baseIPvEEEERSM_SM_,
                          __ZNSt3__16__treeINS_12__value_typeINS_12basic_stringIcNS_11char_traitsIcEENS_9allocatorIcEEEEPN9metaIndex8checkSumEEENS_19__map_value_compareIS7_SB_NS_4lessIS7_EELb1EEENS5_ISB_EEE25__emplace_unique_key_argsIS7_JRKNS_21piecewise_construct_tENS_5tupleIJRKS7_EEENSM_IJEEEEEENS_4pairINS_15__tree_iteratorISB_PNS_11__tree_nodeISB_PvEElEEbEERKT_DpOT0_,
                          __ZNSt3__16__treeINS_12__value_typeINS_12basic_stringIcNS_11char_traitsIcEENS_9allocatorIcEEEEPN9metaIndex8checkSumEEENS_19__map_value_compareIS7_SB_NS_4lessIS7_EELb1EEENS5_ISB_EEE4findIS7_EENS_15__tree_iteratorISB_PNS_11__tree_nodeISB_PvEElEERKT_,
                          __ZNSt3__16__treeINS_12__value_typeINS_12basic_stringIcNS_11char_traitsIcEENS_9allocatorIcEEEEPN9metaIndex8checkSumEEENS_19__map_value_compareIS7_SB_NS_4lessIS7_EELb1EEENS5_ISB_EEE4swapERSH_,
                          __ZNSt3__16__treeINS_12__value_typeINS_12basic_stringIcNS_11char_traitsIcEENS_9allocatorIcEEEEPN9metaIndex8checkSumEEENS_19__map_value_compareIS7_SB_NS_4lessIS7_EELb1EEENS5_ISB_EEE7destroyEPNS_11__tree_nodeISB_PvEE,
                          __ZNSt3__16__treeINS_12__value_typeINS_12basic_stringIcNS_11char_traitsIcEENS_9allocatorIcEEEES7_EENS_19__map_value_compareIS7_S8_NS_4lessIS7_EELb1EEENS5_IS8_EEE12__find_equalIS7_EERPNS_16__tree_node_baseIPvEENS_21__tree_const_iteratorIS8_PNS_11__tree_nodeIS8_SH_EElEERPNS_15__tree_end_nodeISJ_EESK_RKT_,
                          __ZNSt3__16__treeINS_12__value_typeINS_12basic_stringIcNS_11char_traitsIcEENS_9allocatorIcEEEES7_EENS_19__map_value_compareIS7_S8_NS_4lessIS7_EELb1EEENS5_IS8_EEE12__find_equalIS7_EERPNS_16__tree_node_baseIPvEERPNS_15__tree_end_nodeISJ_EERKT_,
                          __ZNSt3__16__treeINS_12__value_typeINS_12basic_stringIcNS_11char_traitsIcEENS_9allocatorIcEEEES7_EENS_19__map_value_compareIS7_S8_NS_4lessIS7_EELb1EEENS5_IS8_EEE12__find_equalIS8_EERPNS_16__tree_node_baseIPvEERPNS_15__tree_end_nodeISJ_EERKT_,
                          __ZNSt3__16__treeINS_12__value_typeINS_12basic_stringIcNS_11char_traitsIcEENS_9allocatorIcEEEES7_EENS_19__map_value_compareIS7_S8_NS_4lessIS7_EELb1EEENS5_IS8_EEE13__lower_boundIS7_EENS_15__tree_iteratorIS8_PNS_11__tree_nodeIS8_PvEElEERKT_SK_PNS_15__tree_end_nodeIPNS_16__tree_node_baseISI_EEEE,
                          __ZNSt3__16__treeINS_12__value_typeINS_12basic_stringIcNS_11char_traitsIcEENS_9allocatorIcEEEES7_EENS_19__map_value_compareIS7_S8_NS_4lessIS7_EELb1EEENS5_IS8_EEE13__move_assignERSE_NS_17integral_constantIbLb1EEE,
                          __ZNSt3__16__treeINS_12__value_typeINS_12basic_stringIcNS_11char_traitsIcEENS_9allocatorIcEEEES7_EENS_19__map_value_compareIS7_S8_NS_4lessIS7_EELb1EEENS5_IS8_EEE16__construct_nodeIJNS_4pairIPKcS7_EEEEENS_10unique_ptrINS_11__tree_nodeIS8_PvEENS_22__tree_node_destructorINS5_ISN_EEEEEEDpOT_,
                          __ZNSt3__16__treeINS_12__value_typeINS_12basic_stringIcNS_11char_traitsIcEENS_9allocatorIcEEEES7_EENS_19__map_value_compareIS7_S8_NS_4lessIS7_EELb1EEENS5_IS8_EEE16__construct_nodeIJNS_4pairIPKcSI_EEEEENS_10unique_ptrINS_11__tree_nodeIS8_PvEENS_22__tree_node_destructorINS5_ISN_EEEEEEDpOT_,
                          __ZNSt3__16__treeINS_12__value_typeINS_12basic_stringIcNS_11char_traitsIcEENS_9allocatorIcEEEES7_EENS_19__map_value_compareIS7_S8_NS_4lessIS7_EELb1EEENS5_IS8_EEE16__construct_nodeIJRA10_KcRKS7_EEENS_10unique_ptrINS_11__tree_nodeIS8_PvEENS_22__tree_node_destructorINS5_ISO_EEEEEEDpOT_,
                          __ZNSt3__16__treeINS_12__value_typeINS_12basic_stringIcNS_11char_traitsIcEENS_9allocatorIcEEEES7_EENS_19__map_value_compareIS7_S8_NS_4lessIS7_EELb1EEENS5_IS8_EEE16__construct_nodeIJRA11_KcRA5_SG_EEENS_10unique_ptrINS_11__tree_nodeIS8_PvEENS_22__tree_node_destructorINS5_ISO_EEEEEEDpOT_,
                          __ZNSt3__16__treeINS_12__value_typeINS_12basic_stringIcNS_11char_traitsIcEENS_9allocatorIcEEEES7_EENS_19__map_value_compareIS7_S8_NS_4lessIS7_EELb1EEENS5_IS8_EEE16__construct_nodeIJRA13_KcKS7_EEENS_10unique_ptrINS_11__tree_nodeIS8_PvEENS_22__tree_node_destructorINS5_ISN_EEEEEEDpOT_,
                          __ZNSt3__16__treeINS_12__value_typeINS_12basic_stringIcNS_11char_traitsIcEENS_9allocatorIcEEEES7_EENS_19__map_value_compareIS7_S8_NS_4lessIS7_EELb1EEENS5_IS8_EEE16__construct_nodeIJRA15_KcRA5_SG_EEENS_10unique_ptrINS_11__tree_nodeIS8_PvEENS_22__tree_node_destructorINS5_ISO_EEEEEEDpOT_,
                          __ZNSt3__16__treeINS_12__value_typeINS_12basic_stringIcNS_11char_traitsIcEENS_9allocatorIcEEEES7_EENS_19__map_value_compareIS7_S8_NS_4lessIS7_EELb1EEENS5_IS8_EEE16__construct_nodeIJRA20_KcKS7_EEENS_10unique_ptrINS_11__tree_nodeIS8_PvEENS_22__tree_node_destructorINS5_ISN_EEEEEEDpOT_,
                          __ZNSt3__16__treeINS_12__value_typeINS_12basic_stringIcNS_11char_traitsIcEENS_9allocatorIcEEEES7_EENS_19__map_value_compareIS7_S8_NS_4lessIS7_EELb1EEENS5_IS8_EEE16__construct_nodeIJRA22_KcRA4_SG_EEENS_10unique_ptrINS_11__tree_nodeIS8_PvEENS_22__tree_node_destructorINS5_ISO_EEEEEEDpOT_,
                          __ZNSt3__16__treeINS_12__value_typeINS_12basic_stringIcNS_11char_traitsIcEENS_9allocatorIcEEEES7_EENS_19__map_value_compareIS7_S8_NS_4lessIS7_EELb1EEENS5_IS8_EEE16__construct_nodeIJRA28_KcRA5_SG_EEENS_10unique_ptrINS_11__tree_nodeIS8_PvEENS_22__tree_node_destructorINS5_ISO_EEEEEEDpOT_,
                          __ZNSt3__16__treeINS_12__value_typeINS_12basic_stringIcNS_11char_traitsIcEENS_9allocatorIcEEEES7_EENS_19__map_value_compareIS7_S8_NS_4lessIS7_EELb1EEENS5_IS8_EEE16__construct_nodeIJRA9_KcRKS7_EEENS_10unique_ptrINS_11__tree_nodeIS8_PvEENS_22__tree_node_destructorINS5_ISO_EEEEEEDpOT_,
                          __ZNSt3__16__treeINS_12__value_typeINS_12basic_stringIcNS_11char_traitsIcEENS_9allocatorIcEEEES7_EENS_19__map_value_compareIS7_S8_NS_4lessIS7_EELb1EEENS5_IS8_EEE16__construct_nodeIJRKNS_21piecewise_construct_tENS_5tupleIJOS7_EEENSJ_IJEEEEEENS_10unique_ptrINS_11__tree_nodeIS8_PvEENS_22__tree_node_destructorINS5_ISQ_EEEEEEDpOT_,
                          __ZNSt3__16__treeINS_12__value_typeINS_12basic_stringIcNS_11char_traitsIcEENS_9allocatorIcEEEES7_EENS_19__map_value_compareIS7_S8_NS_4lessIS7_EELb1EEENS5_IS8_EEE16__construct_nodeIJRKNS_21piecewise_construct_tENS_5tupleIJRKS7_EEENSJ_IJEEEEEENS_10unique_ptrINS_11__tree_nodeIS8_PvEENS_22__tree_node_destructorINS5_ISR_EEEEEEDpOT_,
                          __ZNSt3__16__treeINS_12__value_typeINS_12basic_stringIcNS_11char_traitsIcEENS_9allocatorIcEEEES7_EENS_19__map_value_compareIS7_S8_NS_4lessIS7_EELb1EEENS5_IS8_EEE16__construct_nodeIJRKNS_4pairIKS7_S7_EEEEENS_10unique_ptrINS_11__tree_nodeIS8_PvEENS_22__tree_node_destructorINS5_ISO_EEEEEEDpOT_,
                          __ZNSt3__16__treeINS_12__value_typeINS_12basic_stringIcNS_11char_traitsIcEENS_9allocatorIcEEEES7_EENS_19__map_value_compareIS7_S8_NS_4lessIS7_EELb1EEENS5_IS8_EEE16__insert_node_atEPNS_15__tree_end_nodeIPNS_16__tree_node_baseIPvEEEERSJ_SJ_,
                          __ZNSt3__16__treeINS_12__value_typeINS_12basic_stringIcNS_11char_traitsIcEENS_9allocatorIcEEEES7_EENS_19__map_value_compareIS7_S8_NS_4lessIS7_EELb1EEENS5_IS8_EEE21__emplace_unique_implIJNS_4pairIPKcS7_EEEEENSG_INS_15__tree_iteratorIS8_PNS_11__tree_nodeIS8_PvEElEEbEEDpOT_,
                          __ZNSt3__16__treeINS_12__value_typeINS_12basic_stringIcNS_11char_traitsIcEENS_9allocatorIcEEEES7_EENS_19__map_value_compareIS7_S8_NS_4lessIS7_EELb1EEENS5_IS8_EEE21__emplace_unique_implIJNS_4pairIPKcSI_EEEEENSG_INS_15__tree_iteratorIS8_PNS_11__tree_nodeIS8_PvEElEEbEEDpOT_,
                          __ZNSt3__16__treeINS_12__value_typeINS_12basic_stringIcNS_11char_traitsIcEENS_9allocatorIcEEEES7_EENS_19__map_value_compareIS7_S8_NS_4lessIS7_EELb1EEENS5_IS8_EEE21__emplace_unique_implIJRA10_KcRKS7_EEENS_4pairINS_15__tree_iteratorIS8_PNS_11__tree_nodeIS8_PvEElEEbEEDpOT_,
                          __ZNSt3__16__treeINS_12__value_typeINS_12basic_stringIcNS_11char_traitsIcEENS_9allocatorIcEEEES7_EENS_19__map_value_compareIS7_S8_NS_4lessIS7_EELb1EEENS5_IS8_EEE21__emplace_unique_implIJRA11_KcRA5_SG_EEENS_4pairINS_15__tree_iteratorIS8_PNS_11__tree_nodeIS8_PvEElEEbEEDpOT_,
                          __ZNSt3__16__treeINS_12__value_typeINS_12basic_stringIcNS_11char_traitsIcEENS_9allocatorIcEEEES7_EENS_19__map_value_compareIS7_S8_NS_4lessIS7_EELb1EEENS5_IS8_EEE21__emplace_unique_implIJRA13_KcKS7_EEENS_4pairINS_15__tree_iteratorIS8_PNS_11__tree_nodeIS8_PvEElEEbEEDpOT_,
                          __ZNSt3__16__treeINS_12__value_typeINS_12basic_stringIcNS_11char_traitsIcEENS_9allocatorIcEEEES7_EENS_19__map_value_compareIS7_S8_NS_4lessIS7_EELb1EEENS5_IS8_EEE21__emplace_unique_implIJRA15_KcRA5_SG_EEENS_4pairINS_15__tree_iteratorIS8_PNS_11__tree_nodeIS8_PvEElEEbEEDpOT_,
                          __ZNSt3__16__treeINS_12__value_typeINS_12basic_stringIcNS_11char_traitsIcEENS_9allocatorIcEEEES7_EENS_19__map_value_compareIS7_S8_NS_4lessIS7_EELb1EEENS5_IS8_EEE21__emplace_unique_implIJRA20_KcKS7_EEENS_4pairINS_15__tree_iteratorIS8_PNS_11__tree_nodeIS8_PvEElEEbEEDpOT_,
                          __ZNSt3__16__treeINS_12__value_typeINS_12basic_stringIcNS_11char_traitsIcEENS_9allocatorIcEEEES7_EENS_19__map_value_compareIS7_S8_NS_4lessIS7_EELb1EEENS5_IS8_EEE21__emplace_unique_implIJRA22_KcRA4_SG_EEENS_4pairINS_15__tree_iteratorIS8_PNS_11__tree_nodeIS8_PvEElEEbEEDpOT_,
                          __ZNSt3__16__treeINS_12__value_typeINS_12basic_stringIcNS_11char_traitsIcEENS_9allocatorIcEEEES7_EENS_19__map_value_compareIS7_S8_NS_4lessIS7_EELb1EEENS5_IS8_EEE21__emplace_unique_implIJRA28_KcRA5_SG_EEENS_4pairINS_15__tree_iteratorIS8_PNS_11__tree_nodeIS8_PvEElEEbEEDpOT_,
                          __ZNSt3__16__treeINS_12__value_typeINS_12basic_stringIcNS_11char_traitsIcEENS_9allocatorIcEEEES7_EENS_19__map_value_compareIS7_S8_NS_4lessIS7_EELb1EEENS5_IS8_EEE21__emplace_unique_implIJRA9_KcRKS7_EEENS_4pairINS_15__tree_iteratorIS8_PNS_11__tree_nodeIS8_PvEElEEbEEDpOT_,
                          __ZNSt3__16__treeINS_12__value_typeINS_12basic_stringIcNS_11char_traitsIcEENS_9allocatorIcEEEES7_EENS_19__map_value_compareIS7_S8_NS_4lessIS7_EELb1EEENS5_IS8_EEE25__emplace_unique_key_argsIS7_JRKNS_21piecewise_construct_tENS_5tupleIJOS7_EEENSJ_IJEEEEEENS_4pairINS_15__tree_iteratorIS8_PNS_11__tree_nodeIS8_PvEElEEbEERKT_DpOT0_,
                          __ZNSt3__16__treeINS_12__value_typeINS_12basic_stringIcNS_11char_traitsIcEENS_9allocatorIcEEEES7_EENS_19__map_value_compareIS7_S8_NS_4lessIS7_EELb1EEENS5_IS8_EEE25__emplace_unique_key_argsIS7_JRKNS_21piecewise_construct_tENS_5tupleIJRKS7_EEENSJ_IJEEEEEENS_4pairINS_15__tree_iteratorIS8_PNS_11__tree_nodeIS8_PvEElEEbEERKT_DpOT0_,
                          __ZNSt3__16__treeINS_12__value_typeINS_12basic_stringIcNS_11char_traitsIcEENS_9allocatorIcEEEES7_EENS_19__map_value_compareIS7_S8_NS_4lessIS7_EELb1EEENS5_IS8_EEE30__emplace_hint_unique_key_argsIS7_JRKNS_4pairIKS7_S7_EEEEENS_15__tree_iteratorIS8_PNS_11__tree_nodeIS8_PvEElEENS_21__tree_const_iteratorIS8_SP_lEERKT_DpOT0_,
                          __ZNSt3__16__treeINS_12__value_typeINS_12basic_stringIcNS_11char_traitsIcEENS_9allocatorIcEEEES7_EENS_19__map_value_compareIS7_S8_NS_4lessIS7_EELb1EEENS5_IS8_EEE4findIS7_EENS_15__tree_iteratorIS8_PNS_11__tree_nodeIS8_PvEElEERKT_,
                          __ZNSt3__16__treeINS_12__value_typeINS_12basic_stringIcNS_11char_traitsIcEENS_9allocatorIcEEEES7_EENS_19__map_value_compareIS7_S8_NS_4lessIS7_EELb1EEENS5_IS8_EEE7destroyEPNS_11__tree_nodeIS8_PvEE,
                          __ZNSt3__16__treeINS_12__value_typeINS_12basic_stringIcNS_11char_traitsIcEENS_9allocatorIcEEEES7_EENS_19__map_value_compareIS7_S8_NS_4lessIS7_EELb1EEENS5_IS8_EEEaSEOSE_,
                          __ZNSt3__16__treeINS_12__value_typeINS_12basic_stringIcNS_11char_traitsIcEENS_9allocatorIcEEEEiEENS_19__map_value_compareIS7_S8_NS_4lessIS7_EELb1EEENS5_IS8_EEE12__find_equalIS7_EERPNS_16__tree_node_baseIPvEERPNS_15__tree_end_nodeISJ_EERKT_,
                          __ZNSt3__16__treeINS_12__value_typeINS_12basic_stringIcNS_11char_traitsIcEENS_9allocatorIcEEEEiEENS_19__map_value_compareIS7_S8_NS_4lessIS7_EELb1EEENS5_IS8_EEE16__construct_nodeIJNS_4pairIKS7_iEEEEENS_10unique_ptrINS_11__tree_nodeIS8_PvEENS_22__tree_node_destructorINS5_ISM_EEEEEEDpOT_,
                          __ZNSt3__16__treeINS_12__value_typeINS_12basic_stringIcNS_11char_traitsIcEENS_9allocatorIcEEEEiEENS_19__map_value_compareIS7_S8_NS_4lessIS7_EELb1EEENS5_IS8_EEE16__construct_nodeIJRKNS_21piecewise_construct_tENS_5tupleIJRKS7_EEENSJ_IJEEEEEENS_10unique_ptrINS_11__tree_nodeIS8_PvEENS_22__tree_node_destructorINS5_ISR_EEEEEEDpOT_,
                          __ZNSt3__16__treeINS_12__value_typeINS_12basic_stringIcNS_11char_traitsIcEENS_9allocatorIcEEEEiEENS_19__map_value_compareIS7_S8_NS_4lessIS7_EELb1EEENS5_IS8_EEE16__insert_node_atEPNS_15__tree_end_nodeIPNS_16__tree_node_baseIPvEEEERSJ_SJ_,
                          __ZNSt3__16__treeINS_12__value_typeINS_12basic_stringIcNS_11char_traitsIcEENS_9allocatorIcEEEEiEENS_19__map_value_compareIS7_S8_NS_4lessIS7_EELb1EEENS5_IS8_EEE25__emplace_unique_key_argsIS7_JNS_4pairIKS7_iEEEEENSG_INS_15__tree_iteratorIS8_PNS_11__tree_nodeIS8_PvEElEEbEERKT_DpOT0_,
                          __ZNSt3__16__treeINS_12__value_typeINS_12basic_stringIcNS_11char_traitsIcEENS_9allocatorIcEEEEiEENS_19__map_value_compareIS7_S8_NS_4lessIS7_EELb1EEENS5_IS8_EEE25__emplace_unique_key_argsIS7_JRKNS_21piecewise_construct_tENS_5tupleIJRKS7_EEENSJ_IJEEEEEENS_4pairINS_15__tree_iteratorIS8_PNS_11__tree_nodeIS8_PvEElEEbEERKT_DpOT0_,
                          __ZNSt3__16__treeINS_12__value_typeINS_12basic_stringIcNS_11char_traitsIcEENS_9allocatorIcEEEEiEENS_19__map_value_compareIS7_S8_NS_4lessIS7_EELb1EEENS5_IS8_EEE7destroyEPNS_11__tree_nodeIS8_PvEE,
                          __ZNSt3__16__treeINS_12__value_typeINS_12basic_stringIcNS_11char_traitsIcEENS_9allocatorIcEEEEjEENS_19__map_value_compareIS7_S8_NS_4lessIS7_EELb1EEENS5_IS8_EEE12__find_equalIS7_EERPNS_16__tree_node_baseIPvEERPNS_15__tree_end_nodeISJ_EERKT_,
                          __ZNSt3__16__treeINS_12__value_typeINS_12basic_stringIcNS_11char_traitsIcEENS_9allocatorIcEEEEjEENS_19__map_value_compareIS7_S8_NS_4lessIS7_EELb1EEENS5_IS8_EEE13__lower_boundIS7_EENS_15__tree_iteratorIS8_PNS_11__tree_nodeIS8_PvEElEERKT_SK_PNS_15__tree_end_nodeIPNS_16__tree_node_baseISI_EEEE,
                          __ZNSt3__16__treeINS_12__value_typeINS_12basic_stringIcNS_11char_traitsIcEENS_9allocatorIcEEEEjEENS_19__map_value_compareIS7_S8_NS_4lessIS7_EELb1EEENS5_IS8_EEE16__construct_nodeIJRKNS_21piecewise_construct_tENS_5tupleIJOS7_EEENSJ_IJEEEEEENS_10unique_ptrINS_11__tree_nodeIS8_PvEENS_22__tree_node_destructorINS5_ISQ_EEEEEEDpOT_,
                          __ZNSt3__16__treeINS_12__value_typeINS_12basic_stringIcNS_11char_traitsIcEENS_9allocatorIcEEEEjEENS_19__map_value_compareIS7_S8_NS_4lessIS7_EELb1EEENS5_IS8_EEE16__construct_nodeIJRKNS_21piecewise_construct_tENS_5tupleIJRKS7_EEENSJ_IJEEEEEENS_10unique_ptrINS_11__tree_nodeIS8_PvEENS_22__tree_node_destructorINS5_ISR_EEEEEEDpOT_,
                          __ZNSt3__16__treeINS_12__value_typeINS_12basic_stringIcNS_11char_traitsIcEENS_9allocatorIcEEEEjEENS_19__map_value_compareIS7_S8_NS_4lessIS7_EELb1EEENS5_IS8_EEE16__insert_node_atEPNS_15__tree_end_nodeIPNS_16__tree_node_baseIPvEEEERSJ_SJ_,
                          __ZNSt3__16__treeINS_12__value_typeINS_12basic_stringIcNS_11char_traitsIcEENS_9allocatorIcEEEEjEENS_19__map_value_compareIS7_S8_NS_4lessIS7_EELb1EEENS5_IS8_EEE25__emplace_unique_key_argsIS7_JRKNS_21piecewise_construct_tENS_5tupleIJOS7_EEENSJ_IJEEEEEENS_4pairINS_15__tree_iteratorIS8_PNS_11__tree_nodeIS8_PvEElEEbEERKT_DpOT0_,
                          __ZNSt3__16__treeINS_12__value_typeINS_12basic_stringIcNS_11char_traitsIcEENS_9allocatorIcEEEEjEENS_19__map_value_compareIS7_S8_NS_4lessIS7_EELb1EEENS5_IS8_EEE25__emplace_unique_key_argsIS7_JRKNS_21piecewise_construct_tENS_5tupleIJRKS7_EEENSJ_IJEEEEEENS_4pairINS_15__tree_iteratorIS8_PNS_11__tree_nodeIS8_PvEElEEbEERKT_DpOT0_,
                          __ZNSt3__16__treeINS_12__value_typeINS_12basic_stringIcNS_11char_traitsIcEENS_9allocatorIcEEEEjEENS_19__map_value_compareIS7_S8_NS_4lessIS7_EELb1EEENS5_IS8_EEE4findIS7_EENS_15__tree_iteratorIS8_PNS_11__tree_nodeIS8_PvEElEERKT_,
                          __ZNSt3__16__treeINS_12__value_typeINS_12basic_stringIcNS_11char_traitsIcEENS_9allocatorIcEEEEjEENS_19__map_value_compareIS7_S8_NS_4lessIS7_EELb1EEENS5_IS8_EEE7destroyEPNS_11__tree_nodeIS8_PvEE,
                          __ZNSt3__16__treeINS_12__value_typeIjjEENS_19__map_value_compareIjS2_NS_4lessIjEELb1EEENS_9allocatorIS2_EEE12__find_equalIjEERPNS_16__tree_node_baseIPvEERPNS_15__tree_end_nodeISE_EERKT_,
                          __ZNSt3__16__treeINS_12__value_typeIjjEENS_19__map_value_compareIjS2_NS_4lessIjEELb1EEENS_9allocatorIS2_EEE13__lower_boundIjEENS_15__tree_iteratorIS2_PNS_11__tree_nodeIS2_PvEElEERKT_SF_PNS_15__tree_end_nodeIPNS_16__tree_node_baseISD_EEEE,
                          __ZNSt3__16__treeINS_12__value_typeIjjEENS_19__map_value_compareIjS2_NS_4lessIjEELb1EEENS_9allocatorIS2_EEE16__construct_nodeIJRKjSC_EEENS_10unique_ptrINS_11__tree_nodeIS2_PvEENS_22__tree_node_destructorINS7_ISG_EEEEEEDpOT_,
                          __ZNSt3__16__treeINS_12__value_typeIjjEENS_19__map_value_compareIjS2_NS_4lessIjEELb1EEENS_9allocatorIS2_EEE16__insert_node_atEPNS_15__tree_end_nodeIPNS_16__tree_node_baseIPvEEEERSE_SE_,
                          __ZNSt3__16__treeINS_12__value_typeIjjEENS_19__map_value_compareIjS2_NS_4lessIjEELb1EEENS_9allocatorIS2_EEE25__emplace_unique_key_argsIjJRKjSC_EEENS_4pairINS_15__tree_iteratorIS2_PNS_11__tree_nodeIS2_PvEElEEbEERKT_DpOT0_,
                          __ZNSt3__16__treeINS_12__value_typeIjjEENS_19__map_value_compareIjS2_NS_4lessIjEELb1EEENS_9allocatorIS2_EEE4findIjEENS_15__tree_iteratorIS2_PNS_11__tree_nodeIS2_PvEElEERKT_,
                          __ZNSt3__16__treeINS_12basic_stringIcNS_11char_traitsIcEENS_9allocatorIcEEEENS_4lessIS6_EENS4_IS6_EEE12__find_equalIS6_EERPNS_16__tree_node_baseIPvEERPNS_15__tree_end_nodeISF_EERKT_,
                          __ZNSt3__16__treeINS_12basic_stringIcNS_11char_traitsIcEENS_9allocatorIcEEEENS_4lessIS6_EENS4_IS6_EEE13__lower_boundIS6_EENS_15__tree_iteratorIS6_PNS_11__tree_nodeIS6_PvEElEERKT_SG_PNS_15__tree_end_nodeIPNS_16__tree_node_baseISE_EEEE,
                          __ZNSt3__16__treeINS_12basic_stringIcNS_11char_traitsIcEENS_9allocatorIcEEEENS_4lessIS6_EENS4_IS6_EEE16__construct_nodeIJRKS6_EEENS_10unique_ptrINS_11__tree_nodeIS6_PvEENS_22__tree_node_destructorINS4_ISH_EEEEEEDpOT_,
                          __ZNSt3__16__treeINS_12basic_stringIcNS_11char_traitsIcEENS_9allocatorIcEEEENS_4lessIS6_EENS4_IS6_EEE16__construct_nodeIJS6_EEENS_10unique_ptrINS_11__tree_nodeIS6_PvEENS_22__tree_node_destructorINS4_ISF_EEEEEEDpOT_,
                          __ZNSt3__16__treeINS_12basic_stringIcNS_11char_traitsIcEENS_9allocatorIcEEEENS_4lessIS6_EENS4_IS6_EEE16__insert_node_atEPNS_15__tree_end_nodeIPNS_16__tree_node_baseIPvEEEERSF_SF_,
                          __ZNSt3__16__treeINS_12basic_stringIcNS_11char_traitsIcEENS_9allocatorIcEEEENS_4lessIS6_EENS4_IS6_EEE25__emplace_unique_key_argsIS6_JRKS6_EEENS_4pairINS_15__tree_iteratorIS6_PNS_11__tree_nodeIS6_PvEElEEbEERKT_DpOT0_,
                          __ZNSt3__16__treeINS_12basic_stringIcNS_11char_traitsIcEENS_9allocatorIcEEEENS_4lessIS6_EENS4_IS6_EEE25__emplace_unique_key_argsIS6_JS6_EEENS_4pairINS_15__tree_iteratorIS6_PNS_11__tree_nodeIS6_PvEElEEbEERKT_DpOT0_,
                          __ZNSt3__16__treeINS_12basic_stringIcNS_11char_traitsIcEENS_9allocatorIcEEEENS_4lessIS6_EENS4_IS6_EEE4findIS6_EENS_15__tree_iteratorIS6_PNS_11__tree_nodeIS6_PvEElEERKT_,
                          __ZNSt3__16__treeINS_12basic_stringIcNS_11char_traitsIcEENS_9allocatorIcEEEENS_4lessIS6_EENS4_IS6_EEE7destroyEPNS_11__tree_nodeIS6_PvEE,
                          __ZNSt3__16__treeIPP13WeakPointableNS_4lessIS3_EENS_9allocatorIS3_EEE12__find_equalIS3_EERPNS_16__tree_node_baseIPvEENS_21__tree_const_iteratorIS3_PNS_11__tree_nodeIS3_SB_EElEERPNS_15__tree_end_nodeISD_EESE_RKT_,
                          __ZNSt3__16__treeIPP13WeakPointableNS_4lessIS3_EENS_9allocatorIS3_EEE12__find_equalIS3_EERPNS_16__tree_node_baseIPvEERPNS_15__tree_end_nodeISD_EERKT_,
                          __ZNSt3__16__treeIPP13WeakPointableNS_4lessIS3_EENS_9allocatorIS3_EEE16__construct_nodeIJRKS3_EEENS_10unique_ptrINS_11__tree_nodeIS3_PvEENS_22__tree_node_destructorINS6_ISF_EEEEEEDpOT_,
                          __ZNSt3__16__treeIPP13WeakPointableNS_4lessIS3_EENS_9allocatorIS3_EEE16__insert_node_atEPNS_15__tree_end_nodeIPNS_16__tree_node_baseIPvEEEERSD_SD_,
                          __ZNSt3__16__treeIPP13WeakPointableNS_4lessIS3_EENS_9allocatorIS3_EEE30__emplace_hint_unique_key_argsIS3_JRKS3_EEENS_15__tree_iteratorIS3_PNS_11__tree_nodeIS3_PvEElEENS_21__tree_const_iteratorIS3_SG_lEERKT_DpOT0_,
                          __ZNSt3__16__treeIPP13WeakPointableNS_4lessIS3_EENS_9allocatorIS3_EEE7destroyEPNS_11__tree_nodeIS3_PvEE,
                          __ZNSt3__16__treeIiNS_4lessIiEENS_9allocatorIiEEE12__find_equalIiEERPNS_16__tree_node_baseIPvEENS_21__tree_const_iteratorIiPNS_11__tree_nodeIiS8_EElEERPNS_15__tree_end_nodeISA_EESB_RKT_,
                          __ZNSt3__16__treeIiNS_4lessIiEENS_9allocatorIiEEE12__find_equalIiEERPNS_16__tree_node_baseIPvEERPNS_15__tree_end_nodeISA_EERKT_,
                          __ZNSt3__16__treeIiNS_4lessIiEENS_9allocatorIiEEE13__lower_boundIiEENS_15__tree_iteratorIiPNS_11__tree_nodeIiPvEElEERKT_SB_PNS_15__tree_end_nodeIPNS_16__tree_node_baseIS9_EEEE,
                          __ZNSt3__16__treeIiNS_4lessIiEENS_9allocatorIiEEE16__construct_nodeIJRKiEEENS_10unique_ptrINS_11__tree_nodeIiPvEENS_22__tree_node_destructorINS3_ISC_EEEEEEDpOT_,
                          __ZNSt3__16__treeIiNS_4lessIiEENS_9allocatorIiEEE16__insert_node_atEPNS_15__tree_end_nodeIPNS_16__tree_node_baseIPvEEEERSA_SA_,
                          __ZNSt3__16__treeIiNS_4lessIiEENS_9allocatorIiEEE25__emplace_unique_key_argsIiJRKiEEENS_4pairINS_15__tree_iteratorIiPNS_11__tree_nodeIiPvEElEEbEERKT_DpOT0_,
                          __ZNSt3__16__treeIiNS_4lessIiEENS_9allocatorIiEEE30__emplace_hint_unique_key_argsIiJRKiEEENS_15__tree_iteratorIiPNS_11__tree_nodeIiPvEElEENS_21__tree_const_iteratorIiSD_lEERKT_DpOT0_,
                          __ZNSt3__16__treeIiNS_4lessIiEENS_9allocatorIiEEE4findIiEENS_15__tree_iteratorIiPNS_11__tree_nodeIiPvEElEERKT_,
                          __ZNSt3__16__treeIiNS_4lessIiEENS_9allocatorIiEEE7destroyEPNS_11__tree_nodeIiPvEE,
                          __ZNSt3__16__treeIjNS_4lessIjEENS_9allocatorIjEEE12__find_equalIjEERPNS_16__tree_node_baseIPvEERPNS_15__tree_end_nodeISA_EERKT_,
                          __ZNSt3__16__treeIjNS_4lessIjEENS_9allocatorIjEEE16__construct_nodeIJRKjEEENS_10unique_ptrINS_11__tree_nodeIjPvEENS_22__tree_node_destructorINS3_ISC_EEEEEEDpOT_,
                          __ZNSt3__16__treeIjNS_4lessIjEENS_9allocatorIjEEE16__insert_node_atEPNS_15__tree_end_nodeIPNS_16__tree_node_baseIPvEEEERSA_SA_,
                          __ZNSt3__16__treeIjNS_4lessIjEENS_9allocatorIjEEE25__emplace_unique_key_argsIjJRKjEEENS_4pairINS_15__tree_iteratorIjPNS_11__tree_nodeIjPvEElEEbEERKT_DpOT0_,
                          __ZNSt3__16__treeIjNS_4lessIjEENS_9allocatorIjEEE7destroyEPNS_11__tree_nodeIjPvEE,
                          __ZNSt3__16vectorI10HashStringNS_9allocatorIS1_EEE10deallocateEv,
                          __ZNSt3__16vectorI10HashStringNS_9allocatorIS1_EEE13__move_assignERS4_NS_17integral_constantIbLb1EEE,
                          __ZNSt3__16vectorI10HashStringNS_9allocatorIS1_EEE18__construct_at_endIPS1_EENS_9enable_ifIXsr21__is_forward_iteratorIT_EE5valueEvE4typeES8_S8_m,
                          __ZNSt3__16vectorI10HashStringNS_9allocatorIS1_EEE21__push_back_slow_pathIRKS1_EEvOT_,
                          __ZNSt3__16vectorI10HashStringNS_9allocatorIS1_EEE26__swap_out_circular_bufferERNS_14__split_bufferIS1_RS3_EE,
                          __ZNSt3__16vectorI10HashStringNS_9allocatorIS1_EEE6assignIPS1_EENS_9enable_ifIXaasr21__is_forward_iteratorIT_EE5valuesr16is_constructibleIS1_NS_15iterator_traitsIS8_E9referenceEEE5valueEvE4typeES8_S8_,
                          __ZNSt3__16vectorI10HashStringNS_9allocatorIS1_EEE8allocateEm,
                          __ZNSt3__16vectorI11CdromDeviceNS_9allocatorIS1_EEE21__push_back_slow_pathIRKS1_EEvOT_,
                          __ZNSt3__16vectorI11CdromDeviceNS_9allocatorIS1_EEE26__swap_out_circular_bufferERNS_14__split_bufferIS1_RS3_EE,
                          __ZNSt3__16vectorI11IndexTargetNS_9allocatorIS1_EEE21__push_back_slow_pathIRKS1_EEvOT_,
                          __ZNSt3__16vectorI11IndexTargetNS_9allocatorIS1_EEE26__swap_out_circular_bufferERNS_14__split_bufferIS1_RS3_EE,
                          __ZNSt3__16vectorI6SrvRecNS_9allocatorIS1_EEE24__emplace_back_slow_pathIJRA1025_cRtS8_S8_EEEvDpOT_,
                          __ZNSt3__16vectorI6SrvRecNS_9allocatorIS1_EEE26__swap_out_circular_bufferERNS_14__split_bufferIS1_RS3_EE,
                          __ZNSt3__16vectorI8DiffInfoNS_9allocatorIS1_EEE18__construct_at_endIPS1_EENS_9enable_ifIXsr21__is_forward_iteratorIT_EE5valueEvE4typeES8_S8_m,
                          __ZNSt3__16vectorI8DiffInfoNS_9allocatorIS1_EEE21__push_back_slow_pathIRKS1_EEvOT_,
                          __ZNSt3__16vectorI8DiffInfoNS_9allocatorIS1_EEE26__swap_out_circular_bufferERNS_14__split_bufferIS1_RS3_EE,
                          __ZNSt3__16vectorI8DiffInfoNS_9allocatorIS1_EEE5eraseENS_11__wrap_iterIPKS1_EES8_,
                          __ZNSt3__16vectorI8DiffInfoNS_9allocatorIS1_EEE8allocateEm,
                          __ZNSt3__16vectorIN13pkgSrcRecords4FileENS_9allocatorIS2_EEE21__push_back_slow_pathIRKS2_EEvOT_,
                          __ZNSt3__16vectorIN13pkgSrcRecords4FileENS_9allocatorIS2_EEE26__swap_out_circular_bufferERNS_14__split_bufferIS2_RS4_EE,
                          __ZNSt3__16vectorIN13pkgSrcRecords5File2ENS_9allocatorIS2_EEE21__push_back_slow_pathIRKS2_EEvOT_,
                          __ZNSt3__16vectorIN13pkgSrcRecords5File2ENS_9allocatorIS2_EEE26__swap_out_circular_bufferERNS_14__split_bufferIS2_RS4_EE,
                          __ZNSt3__16vectorIN13pkgSrcRecords6Parser11BuildDepRecENS_9allocatorIS3_EEE21__push_back_slow_pathIRKS3_EEvOT_,
                          __ZNSt3__16vectorIN13pkgSrcRecords6Parser11BuildDepRecENS_9allocatorIS3_EEE26__swap_out_circular_bufferERNS_14__split_bufferIS3_RS5_EE,
                          __ZNSt3__16vectorIN13pkgTagSection3TagENS_9allocatorIS2_EEE21__push_back_slow_pathIS2_EEvOT_,
                          __ZNSt3__16vectorIN13pkgTagSection3TagENS_9allocatorIS2_EEE26__swap_out_circular_bufferERNS_14__split_bufferIS2_RS4_EE,
                          __ZNSt3__16vectorIN18pkgProblemResolver11PackageKillENS_9allocatorIS2_EEE18__construct_at_endEm,
                          __ZNSt3__16vectorIN18pkgProblemResolver11PackageKillENS_9allocatorIS2_EEE21__push_back_slow_pathIS2_EEvOT_,
                          __ZNSt3__16vectorIN18pkgProblemResolver11PackageKillENS_9allocatorIS2_EEE26__swap_out_circular_bufferERNS_14__split_bufferIS2_RS4_EE,
                          __ZNSt3__16vectorIN18pkgProblemResolver11PackageKillENS_9allocatorIS2_EEE6resizeEm,
                          __ZNSt3__16vectorIN18pkgProblemResolver11PackageKillENS_9allocatorIS2_EEE8__appendEm,
                          __ZNSt3__16vectorIN20pkgTagSectionPrivate7TagDataENS_9allocatorIS2_EEE21__push_back_slow_pathIRKS2_EEvOT_,
                          __ZNSt3__16vectorIN20pkgTagSectionPrivate7TagDataENS_9allocatorIS2_EEE26__swap_out_circular_bufferERNS_14__split_bufferIS2_RS4_EE,
                          __ZNSt3__16vectorIN20pkgTagSectionPrivate7TagDataENS_9allocatorIS2_EEE7reserveEm,
                          __ZNSt3__16vectorIN22debReleaseIndexPrivate15debSectionEntryENS_9allocatorIS2_EEE21__push_back_slow_pathIRKS2_EEvOT_,
                          __ZNSt3__16vectorIN22debReleaseIndexPrivate15debSectionEntryENS_9allocatorIS2_EEE26__swap_out_circular_bufferERNS_14__split_bufferIS2_RS4_EE,
                          __ZNSt3__16vectorIN3APT13Configuration10CompressorENS_9allocatorIS3_EEE18__construct_at_endIPS3_EENS_9enable_ifIXsr21__is_forward_iteratorIT_EE5valueEvE4typeESA_SA_m,
                          __ZNSt3__16vectorIN3APT13Configuration10CompressorENS_9allocatorIS3_EEE21__push_back_slow_pathIS3_EEvOT_,
                          __ZNSt3__16vectorIN3APT13Configuration10CompressorENS_9allocatorIS3_EEE24__emplace_back_slow_pathIJRA2_KcRA1_S8_SC_DnDniEEEvDpOT_,
                          __ZNSt3__16vectorIN3APT13Configuration10CompressorENS_9allocatorIS3_EEE24__emplace_back_slow_pathIJRA3_KcRA4_S8_RA6_S8_DnDniEEEvDpOT_,
                          __ZNSt3__16vectorIN3APT13Configuration10CompressorENS_9allocatorIS3_EEE24__emplace_back_slow_pathIJRA3_KcRA4_S8_SA_SA_SA_iEEEvDpOT_,
                          __ZNSt3__16vectorIN3APT13Configuration10CompressorENS_9allocatorIS3_EEE24__emplace_back_slow_pathIJRA4_KcRA5_S8_SA_RA3_S8_SE_iEEEvDpOT_,
                          __ZNSt3__16vectorIN3APT13Configuration10CompressorENS_9allocatorIS3_EEE24__emplace_back_slow_pathIJRA5_KcRA4_S8_RA6_S8_DnDniEEEvDpOT_,
                          __ZNSt3__16vectorIN3APT13Configuration10CompressorENS_9allocatorIS3_EEE24__emplace_back_slow_pathIJRA5_KcRA4_S8_SA_SC_RA3_S8_iEEEvDpOT_,
                          __ZNSt3__16vectorIN3APT13Configuration10CompressorENS_9allocatorIS3_EEE24__emplace_back_slow_pathIJRA5_KcRA6_S8_SA_RA3_S8_SE_iEEEvDpOT_,
                          __ZNSt3__16vectorIN3APT13Configuration10CompressorENS_9allocatorIS3_EEE24__emplace_back_slow_pathIJRA5_KcRA6_S8_SC_DnDniEEEvDpOT_,
                          __ZNSt3__16vectorIN3APT13Configuration10CompressorENS_9allocatorIS3_EEE24__emplace_back_slow_pathIJRA6_KcRA5_S8_SA_DnDniEEEvDpOT_,
                          __ZNSt3__16vectorIN3APT13Configuration10CompressorENS_9allocatorIS3_EEE24__emplace_back_slow_pathIJRA6_KcRA5_S8_SA_RA3_S8_SE_iEEEvDpOT_,
                          __ZNSt3__16vectorIN3APT13Configuration10CompressorENS_9allocatorIS3_EEE26__swap_out_circular_bufferERNS_14__split_bufferIS3_RS5_EE,
                          __ZNSt3__16vectorIN3APT13Configuration10CompressorENS_9allocatorIS3_EEE8allocateEm,
                          __ZNSt3__16vectorIN8pkgCache11PkgIteratorENS_9allocatorIS2_EEE21__push_back_slow_pathIRKS2_EEvOT_,
                          __ZNSt3__16vectorIN8pkgCache11PkgIteratorENS_9allocatorIS2_EEE26__swap_out_circular_bufferERNS_14__split_bufferIS2_RS4_EE,
                          __ZNSt3__16vectorIN8pkgCache11VerIteratorENS_9allocatorIS2_EEE10deallocateEv,
                          __ZNSt3__16vectorIN8pkgCache11VerIteratorENS_9allocatorIS2_EEE13__move_assignERS5_NS_17integral_constantIbLb1EEE,
                          __ZNSt3__16vectorIN8pkgCache11VerIteratorENS_9allocatorIS2_EEE21__push_back_slow_pathIRKS2_EEvOT_,
                          __ZNSt3__16vectorIN8pkgCache11VerIteratorENS_9allocatorIS2_EEE24__emplace_back_slow_pathIJRKS2_EEEvDpOT_,
                          __ZNSt3__16vectorIN8pkgCache11VerIteratorENS_9allocatorIS2_EEE24__emplace_back_slow_pathIJS2_EEEvDpOT_,
                          __ZNSt3__16vectorIN8pkgCache11VerIteratorENS_9allocatorIS2_EEE26__swap_out_circular_bufferERNS_14__split_bufferIS2_RS4_EE,
                          __ZNSt3__16vectorIN8pkgCache11VerIteratorENS_9allocatorIS2_EEE5eraseENS_11__wrap_iterIPKS2_EES9_,
                          __ZNSt3__16vectorIN9pkgDPkgPM4ItemENS_9allocatorIS2_EEE21__push_back_slow_pathIS2_EEvOT_,
                          __ZNSt3__16vectorIN9pkgDPkgPM4ItemENS_9allocatorIS2_EEE24__emplace_back_slow_pathIJNS2_3OpsEN8pkgCache11PkgIteratorEEEEvDpOT_,
                          __ZNSt3__16vectorIN9pkgDPkgPM4ItemENS_9allocatorIS2_EEE24__emplace_back_slow_pathIJNS2_3OpsERN8pkgCache11PkgIteratorEEEEvDpOT_,
                          __ZNSt3__16vectorIN9pkgDPkgPM4ItemENS_9allocatorIS2_EEE24__emplace_back_slow_pathIJNS2_3OpsERN8pkgCache11PkgIteratorERNS_12basic_stringIcNS_11char_traitsIcEENS3_IcEEEEEEEvDpOT_,
                          __ZNSt3__16vectorIN9pkgDPkgPM4ItemENS_9allocatorIS2_EEE26__swap_out_circular_bufferERNS_14__split_bufferIS2_RS4_EE,
                          __ZNSt3__16vectorIN9pkgDPkgPM4ItemENS_9allocatorIS2_EEE5eraseENS_11__wrap_iterIPKS2_EES9_,
                          __ZNSt3__16vectorIN9pkgDPkgPM9DpkgStateENS_9allocatorIS2_EEE12__move_rangeEPS2_S6_S6_,
                          __ZNSt3__16vectorIN9pkgDPkgPM9DpkgStateENS_9allocatorIS2_EEE21__push_back_slow_pathIRKS2_EEvOT_,
                          __ZNSt3__16vectorIN9pkgDPkgPM9DpkgStateENS_9allocatorIS2_EEE26__swap_out_circular_bufferERNS_14__split_bufferIS2_RS4_EE,
                          __ZNSt3__16vectorIN9pkgDPkgPM9DpkgStateENS_9allocatorIS2_EEE26__swap_out_circular_bufferERNS_14__split_bufferIS2_RS4_EEPS2_,
                          __ZNSt3__16vectorIN9pkgDPkgPM9DpkgStateENS_9allocatorIS2_EEE5eraseENS_11__wrap_iterIPKS2_EES9_,
                          __ZNSt3__16vectorIN9pkgDPkgPM9DpkgStateENS_9allocatorIS2_EEE6insertENS_11__wrap_iterIPKS2_EEOS2_,
                          __ZNSt3__16vectorIN9pkgPolicy3PinENS_9allocatorIS2_EEE12__move_rangeEPS2_S6_S6_,
                          __ZNSt3__16vectorIN9pkgPolicy3PinENS_9allocatorIS2_EEE26__swap_out_circular_bufferERNS_14__split_bufferIS2_RS4_EEPS2_,
                          __ZNSt3__16vectorIN9pkgPolicy3PinENS_9allocatorIS2_EEE6insertENS_11__wrap_iterIPKS2_EEOS2_,
                          __ZNSt3__16vectorIN9pkgPolicy6PkgPinENS_9allocatorIS2_EEE12__move_rangeEPS2_S6_S6_,
                          __ZNSt3__16vectorIN9pkgPolicy6PkgPinENS_9allocatorIS2_EEE26__swap_out_circular_bufferERNS_14__split_bufferIS2_RS4_EEPS2_,
                          __ZNSt3__16vectorIN9pkgPolicy6PkgPinENS_9allocatorIS2_EEE6insertENS_11__wrap_iterIPKS2_EEOS2_,
                          __ZNSt3__16vectorINS_12basic_stringIcNS_11char_traitsIcEENS_9allocatorIcEEEENS4_IS6_EEE10deallocateEv,
                          __ZNSt3__16vectorINS_12basic_stringIcNS_11char_traitsIcEENS_9allocatorIcEEEENS4_IS6_EEE12__move_rangeEPS6_S9_S9_,
                          __ZNSt3__16vectorINS_12basic_stringIcNS_11char_traitsIcEENS_9allocatorIcEEEENS4_IS6_EEE13__move_assignERS8_NS_17integral_constantIbLb1EEE,
                          __ZNSt3__16vectorINS_12basic_stringIcNS_11char_traitsIcEENS_9allocatorIcEEEENS4_IS6_EEE18__construct_at_endIPKS6_EENS_9enable_ifIXsr21__is_forward_iteratorIT_EE5valueEvE4typeESD_SD_m,
                          __ZNSt3__16vectorINS_12basic_stringIcNS_11char_traitsIcEENS_9allocatorIcEEEENS4_IS6_EEE18__construct_at_endIPS6_EENS_9enable_ifIXsr21__is_forward_iteratorIT_EE5valueEvE4typeESC_SC_m,
                          __ZNSt3__16vectorINS_12basic_stringIcNS_11char_traitsIcEENS_9allocatorIcEEEENS4_IS6_EEE21__push_back_slow_pathIRKS6_EEvOT_,
                          __ZNSt3__16vectorINS_12basic_stringIcNS_11char_traitsIcEENS_9allocatorIcEEEENS4_IS6_EEE21__push_back_slow_pathIS6_EEvOT_,
                          __ZNSt3__16vectorINS_12basic_stringIcNS_11char_traitsIcEENS_9allocatorIcEEEENS4_IS6_EEE24__emplace_back_slow_pathIJRA4_KcEEEvDpOT_,
                          __ZNSt3__16vectorINS_12basic_stringIcNS_11char_traitsIcEENS_9allocatorIcEEEENS4_IS6_EEE24__emplace_back_slow_pathIJRKS6_EEEvDpOT_,
                          __ZNSt3__16vectorINS_12basic_stringIcNS_11char_traitsIcEENS_9allocatorIcEEEENS4_IS6_EEE24__emplace_back_slow_pathIJS6_EEEvDpOT_,
                          __ZNSt3__16vectorINS_12basic_stringIcNS_11char_traitsIcEENS_9allocatorIcEEEENS4_IS6_EEE26__swap_out_circular_bufferERNS_14__split_bufferIS6_RS7_EE,
                          __ZNSt3__16vectorINS_12basic_stringIcNS_11char_traitsIcEENS_9allocatorIcEEEENS4_IS6_EEE26__swap_out_circular_bufferERNS_14__split_bufferIS6_RS7_EEPS6_,
                          __ZNSt3__16vectorINS_12basic_stringIcNS_11char_traitsIcEENS_9allocatorIcEEEENS4_IS6_EEE5eraseENS_11__wrap_iterIPKS6_EESC_,
                          __ZNSt3__16vectorINS_12basic_stringIcNS_11char_traitsIcEENS_9allocatorIcEEEENS4_IS6_EEE6assignIPS6_EENS_9enable_ifIXaasr21__is_forward_iteratorIT_EE5valuesr16is_constructibleIS6_NS_15iterator_traitsISC_E9referenceEEE5valueEvE4typeESC_SC_,
                          __ZNSt3__16vectorINS_12basic_stringIcNS_11char_traitsIcEENS_9allocatorIcEEEENS4_IS6_EEE6insertENS_11__wrap_iterIPKS6_EERSA_,
                          __ZNSt3__16vectorINS_12basic_stringIcNS_11char_traitsIcEENS_9allocatorIcEEEENS4_IS6_EEE7reserveEm,
                          __ZNSt3__16vectorINS_12basic_stringIcNS_11char_traitsIcEENS_9allocatorIcEEEENS4_IS6_EEE8allocateEm,
                          __ZNSt3__16vectorINS_4pairIPN9pkgDPkgPM4ItemENS_12basic_stringIcNS_11char_traitsIcEENS_9allocatorIcEEEEEENS8_ISB_EEE24__emplace_back_slow_pathIJS4_SA_EEEvDpOT_,
                          __ZNSt3__16vectorINS_4pairIPN9pkgDPkgPM4ItemENS_12basic_stringIcNS_11char_traitsIcEENS_9allocatorIcEEEEEENS8_ISB_EEE26__swap_out_circular_bufferERNS_14__split_bufferISB_RSC_EE,
                          __ZNSt3__16vectorIP12pkgIndexFileNS_9allocatorIS2_EEE10deallocateEv,
                          __ZNSt3__16vectorIP12pkgIndexFileNS_9allocatorIS2_EEE13__move_assignERS5_NS_17integral_constantIbLb1EEE,
                          __ZNSt3__16vectorIP12pkgIndexFileNS_9allocatorIS2_EEE18__construct_at_endIPS2_EENS_9enable_ifIXsr21__is_forward_iteratorIT_EE5valueEvE4typeES9_S9_m,
                          __ZNSt3__16vectorIP12pkgIndexFileNS_9allocatorIS2_EEE21__push_back_slow_pathIRKS2_EEvOT_,
                          __ZNSt3__16vectorIP12pkgIndexFileNS_9allocatorIS2_EEE21__push_back_slow_pathIS2_EEvOT_,
                          __ZNSt3__16vectorIP12pkgIndexFileNS_9allocatorIS2_EEE26__swap_out_circular_bufferERNS_14__split_bufferIS2_RS4_EE,
                          __ZNSt3__16vectorIP12pkgIndexFileNS_9allocatorIS2_EEE8allocateEm,
                          __ZNSt3__16vectorIP21pkgAcqIndexMergeDiffsNS_9allocatorIS2_EEE18__construct_at_endEm,
                          __ZNSt3__16vectorIP21pkgAcqIndexMergeDiffsNS_9allocatorIS2_EEE8allocateEm,
                          __ZNSt3__16vectorIP21pkgAcqTransactionItemNS_9allocatorIS2_EEE21__push_back_slow_pathIRKS2_EEvOT_,
                          __ZNSt3__16vectorIP21pkgAcqTransactionItemNS_9allocatorIS2_EEE26__swap_out_circular_bufferERNS_14__split_bufferIS2_RS4_EE,
                          __ZNSt3__16vectorIP7regex_tNS_9allocatorIS2_EEE21__push_back_slow_pathIRKS2_EEvOT_,
                          __ZNSt3__16vectorIP7regex_tNS_9allocatorIS2_EEE21__push_back_slow_pathIS2_EEvOT_,
                          __ZNSt3__16vectorIP7regex_tNS_9allocatorIS2_EEE26__swap_out_circular_bufferERNS_14__split_bufferIS2_RS4_EE,
                          __ZNSt3__16vectorIP9metaIndexNS_9allocatorIS2_EEE21__push_back_slow_pathIS2_EEvOT_,
                          __ZNSt3__16vectorIP9metaIndexNS_9allocatorIS2_EEE26__swap_out_circular_bufferERNS_14__split_bufferIS2_RS4_EE,
                          __ZNSt3__16vectorIPKcNS_9allocatorIS2_EEE18__construct_at_endIPKS2_EENS_9enable_ifIXsr21__is_forward_iteratorIT_EE5valueEvE4typeESA_SA_m,
                          __ZNSt3__16vectorIPKcNS_9allocatorIS2_EEE21__push_back_slow_pathIRKS2_EEvOT_,
                          __ZNSt3__16vectorIPKcNS_9allocatorIS2_EEE21__push_back_slow_pathIS2_EEvOT_,
                          __ZNSt3__16vectorIPKcNS_9allocatorIS2_EEE26__swap_out_circular_bufferERNS_14__split_bufferIS2_RS4_EE,
                          __ZNSt3__16vectorIPKcNS_9allocatorIS2_EEE5eraseENS_11__wrap_iterIPKS2_EES9_,
                          __ZNSt3__16vectorIPKcNS_9allocatorIS2_EEE7reserveEm,
                          __ZNSt3__16vectorIPKcNS_9allocatorIS2_EEE8allocateEm,
                          __ZNSt3__16vectorIPN10pkgAcquire4ItemENS_9allocatorIS3_EEE18__construct_at_endIPS3_EENS_9enable_ifIXsr21__is_forward_iteratorIT_EE5valueEvE4typeESA_SA_m,
                          __ZNSt3__16vectorIPN10pkgAcquire4ItemENS_9allocatorIS3_EEE21__push_back_slow_pathIRKS3_EEvOT_,
                          __ZNSt3__16vectorIPN10pkgAcquire4ItemENS_9allocatorIS3_EEE26__swap_out_circular_bufferERNS_14__split_bufferIS3_RS5_EE,
                          __ZNSt3__16vectorIPN10pkgAcquire4ItemENS_9allocatorIS3_EEE8allocateEm,
                          __ZNSt3__16vectorIPN10pkgRecords6ParserENS_9allocatorIS3_EEE18__construct_at_endEm,
                          __ZNSt3__16vectorIPN10pkgRecords6ParserENS_9allocatorIS3_EEE8allocateEm,
                          __ZNSt3__16vectorIPN13pkgSrcRecords6ParserENS_9allocatorIS3_EEE18__construct_at_endEm,
                          __ZNSt3__16vectorIPN13pkgSrcRecords6ParserENS_9allocatorIS3_EEE21__push_back_slow_pathIRKS3_EEvOT_,
                          __ZNSt3__16vectorIPN13pkgSrcRecords6ParserENS_9allocatorIS3_EEE26__swap_out_circular_bufferERNS_14__split_bufferIS3_RS5_EE,
                          __ZNSt3__16vectorIPN13pkgSrcRecords6ParserENS_9allocatorIS3_EEE8allocateEm,
                          __ZNSt3__16vectorIPN3APT10StringViewENS_9allocatorIS3_EEE21__push_back_slow_pathIS3_EEvOT_,
                          __ZNSt3__16vectorIPN3APT10StringViewENS_9allocatorIS3_EEE26__swap_out_circular_bufferERNS_14__split_bufferIS3_RS5_EE,
                          __ZNSt3__16vectorIPN3APT11CacheFilter7MatcherENS_9allocatorIS4_EEE21__push_back_slow_pathIRKS4_EEvOT_,
                          __ZNSt3__16vectorIPN3APT11CacheFilter7MatcherENS_9allocatorIS4_EEE26__swap_out_circular_bufferERNS_14__split_bufferIS4_RS6_EE,
                          __ZNSt3__16vectorIPN3APT8Progress19PackageManagerFancyENS_9allocatorIS4_EEE21__push_back_slow_pathIS4_EEvOT_,
                          __ZNSt3__16vectorIPN3APT8Progress19PackageManagerFancyENS_9allocatorIS4_EEE26__swap_out_circular_bufferERNS_14__split_bufferIS4_RS6_EE,
                          __ZNSt3__16vectorIPN8pkgCache11DepIteratorENS_9allocatorIS3_EEE21__push_back_slow_pathIS3_EEvOT_,
                          __ZNSt3__16vectorIPN8pkgCache11DepIteratorENS_9allocatorIS3_EEE26__swap_out_circular_bufferERNS_14__split_bufferIS3_RS5_EE,
                          __ZNSt3__16vectorIPN8pkgCache11GrpIteratorENS_9allocatorIS3_EEE21__push_back_slow_pathIS3_EEvOT_,
                          __ZNSt3__16vectorIPN8pkgCache11GrpIteratorENS_9allocatorIS3_EEE26__swap_out_circular_bufferERNS_14__split_bufferIS3_RS5_EE,
                          __ZNSt3__16vectorIPN8pkgCache11PkgIteratorENS_9allocatorIS3_EEE21__push_back_slow_pathIS3_EEvOT_,
                          __ZNSt3__16vectorIPN8pkgCache11PkgIteratorENS_9allocatorIS3_EEE26__swap_out_circular_bufferERNS_14__split_bufferIS3_RS5_EE,
                          __ZNSt3__16vectorIPN8pkgCache11PrvIteratorENS_9allocatorIS3_EEE21__push_back_slow_pathIS3_EEvOT_,
                          __ZNSt3__16vectorIPN8pkgCache11PrvIteratorENS_9allocatorIS3_EEE26__swap_out_circular_bufferERNS_14__split_bufferIS3_RS5_EE,
                          __ZNSt3__16vectorIPN8pkgCache11VerIteratorENS_9allocatorIS3_EEE21__push_back_slow_pathIS3_EEvOT_,
                          __ZNSt3__16vectorIPN8pkgCache11VerIteratorENS_9allocatorIS3_EEE26__swap_out_circular_bufferERNS_14__split_bufferIS3_RS5_EE,
                          __ZNSt3__16vectorIPN8pkgCache12DescIteratorENS_9allocatorIS3_EEE21__push_back_slow_pathIS3_EEvOT_,
                          __ZNSt3__16vectorIPN8pkgCache12DescIteratorENS_9allocatorIS3_EEE26__swap_out_circular_bufferERNS_14__split_bufferIS3_RS5_EE,
                          __ZNSt3__16vectorIPN8pkgCache15PkgFileIteratorENS_9allocatorIS3_EEE21__push_back_slow_pathIS3_EEvOT_,
                          __ZNSt3__16vectorIPN8pkgCache15PkgFileIteratorENS_9allocatorIS3_EEE26__swap_out_circular_bufferERNS_14__split_bufferIS3_RS5_EE,
                          __ZNSt3__16vectorIPN8pkgCache15RlsFileIteratorENS_9allocatorIS3_EEE21__push_back_slow_pathIS3_EEvOT_,
                          __ZNSt3__16vectorIPN8pkgCache15RlsFileIteratorENS_9allocatorIS3_EEE26__swap_out_circular_bufferERNS_14__split_bufferIS3_RS5_EE,
                          __ZNSt3__16vectorIPcNS_9allocatorIS1_EEE21__push_back_slow_pathIRKS1_EEvOT_,
                          __ZNSt3__16vectorIPcNS_9allocatorIS1_EEE26__swap_out_circular_bufferERNS_14__split_bufferIS1_RS3_EE,
                          __ZNSt3__16vectorIPcNS_9allocatorIS1_EEE8allocateEm, __ZNSt3__16vectorIbNS_9allocatorIbEEE8allocateEm,
                          __ZNSt3__16vectorIcNS_9allocatorIcEEE18__construct_at_endEm,
                          __ZNSt3__16vectorIcNS_9allocatorIcEEE8allocateEm,
                          __ZNSt3__16vectorIlNS_9allocatorIlEEE21__push_back_slow_pathIlEEvOT_,
                          __ZNSt3__16vectorIlNS_9allocatorIlEEE26__swap_out_circular_bufferERNS_14__split_bufferIlRS2_EE,
                          __ZNSt3__16vectorIlNS_9allocatorIlEEE7reserveEm,
                          __ZNSt3__17__sort3IR8PrioCompPPN8pkgCache7VersionEEEjT0_S7_S7_T_,
                          __ZNSt3__17__sort3IRNS_6__lessINS_12basic_stringIcNS_11char_traitsIcEENS_9allocatorIcEEEES7_EEPS7_EEjT0_SB_SB_T_,
                          __ZNSt3__17__sort4IR8PrioCompPPN8pkgCache7VersionEEEjT0_S7_S7_S7_T_,
                          __ZNSt3__17__sort4IRNS_6__lessINS_12basic_stringIcNS_11char_traitsIcEENS_9allocatorIcEEEES7_EEPS7_EEjT0_SB_SB_SB_T_,
                          __ZNSt3__17__sort5IR8PrioCompPPN8pkgCache7VersionEEEjT0_S7_S7_S7_S7_T_,
                          __ZNSt3__17__sort5IRNS_6__lessINS_12basic_stringIcNS_11char_traitsIcEENS_9allocatorIcEEEES7_EEPS7_EEjT0_SB_SB_SB_SB_T_,
                          __ZNSt3__17getlineIcNS_11char_traitsIcEENS_9allocatorIcEEEERNS_13basic_istreamIT_T0_EES9_RNS_12basic_stringIS6_S7_T1_EES6_,
                          __ZNSt3__17shuffleINS_11__wrap_iterIP11IndexTargetEERNS_26linear_congruential_engineIjLj48271ELj0ELj2147483647EEEEEvT_S8_OT0_,
                          __ZNSt3__1lsINS_11char_traitsIcEEEERNS_13basic_ostreamIcT_EES6_PKc,
                          __ZNSt3__1lsINS_11char_traitsIcEEEERNS_13basic_ostreamIcT_EES6_c,
                          __ZNSt3__1lsIcNS_11char_traitsIcEENS_9allocatorIcEEEERNS_13basic_ostreamIT_T0_EES9_RKNS_12basic_stringIS6_S7_T1_EE,
                          __ZNSt3__1plIcNS_11char_traitsIcEENS_9allocatorIcEEEENS_12basic_stringIT_T0_T1_EEPKS6_RKS9_,
                          __ZNSt3__1plIcNS_11char_traitsIcEENS_9allocatorIcEEEENS_12basic_stringIT_T0_T1_EERKS9_PKS6_,
                          __ZNSt3__1plIcNS_11char_traitsIcEENS_9allocatorIcEEEENS_12basic_stringIT_T0_T1_EERKS9_S6_,
                          __ZNSt3__1plIcNS_11char_traitsIcEENS_9allocatorIcEEEENS_12basic_stringIT_T0_T1_EERKS9_SB_,
                          __ZNSt3__1plIcNS_11char_traitsIcEENS_9allocatorIcEEEENS_12basic_stringIT_T0_T1_EES6_RKS9_,
                          __ZNSt3__1rsIcNS_11char_traitsIcEENS_9allocatorIcEEEERNS_13basic_istreamIT_T0_EES9_RNS_12basic_stringIS6_S7_T1_EE,
                          __ZTI10OpProgress, __ZTI10edspIFType, __ZTI10eippIFType, __ZTI11CleanupItem, __ZTI12NoActionItem,
                          __ZTI12debIFTypePkg, __ZTI12debIFTypeSrc, __ZTI12debSLTypeDeb, __ZTI13FileFdPrivate,
                          __ZTI13WeakPointable, __ZTI14debIFTypeTrans, __ZTI15SHA256Summation, __ZTI15SHA512Summation,
                          __ZTI15debIFTypeStatus, __ZTI15debSLTypeDebSrc, __ZTI15debSLTypeDebian, __ZTI16Bz2FileFdPrivate,
                          __ZTI16debIFTypeDscFile, __ZTI17GzipFileFdPrivate, __ZTI17LzmaFileFdPrivate,
                          __ZTI17SHA2SummationBase, __ZTI18PipedFileFdPrivate, __ZTI18debDscRecordParser,
                          __ZTI19DirectFileFdPrivate, __ZTI19debIFTypeDebPkgFile, __ZTI21debTranslationsParser,
                          __ZTI23SummationImplementation, __ZTI24debIFTypeDebianSourceDir, __ZTI26BufferedWriteFileFdPrivate,
                          __ZTIN11pkgDepCache13InRootSetFuncE, __ZTIN11pkgDepCache18DefaultRootSetFuncE,
                          __ZTIN11pkgSimulate6PolicyE, __ZTIN12pkgIndexFile4TypeE,
                          __ZTIN3APT16PackageContainerINSt3__13setIN8pkgCache11PkgIteratorENS1_4lessIS4_EENS1_9allocatorIS4_EEEEEE,
                          __ZTIN3APT16PackageContainerINSt3__14listIN8pkgCache11PkgIteratorENS1_9allocatorIS4_EEEEEE,
                          __ZTIN3APT16VersionContainerINSt3__14listIN8pkgCache11VerIteratorENS1_9allocatorIS4_EEEEEE,
                          __ZTIN3APT16VersionContainerINSt3__16vectorIN8pkgCache11VerIteratorENS1_9allocatorIS4_EEEEEE,
                          __ZTIN8pkgCache9NamespaceE, __ZTINSt3__113basic_filebufIcNS_11char_traitsIcEEEE,
                          __ZTINSt3__113basic_istreamIcNS_11char_traitsIcEEEE,
                          __ZTINSt3__113basic_ostreamIcNS_11char_traitsIcEEEE,
                          __ZTINSt3__114basic_ifstreamIcNS_11char_traitsIcEEEE,
                          __ZTINSt3__114basic_iostreamIcNS_11char_traitsIcEEEE,
                          __ZTINSt3__114basic_ofstreamIcNS_11char_traitsIcEEEE,
                          __ZTINSt3__115basic_streambufIcNS_11char_traitsIcEEEE,
                          __ZTINSt3__115basic_stringbufIcNS_11char_traitsIcEENS_9allocatorIcEEEE,
                          __ZTINSt3__118basic_stringstreamIcNS_11char_traitsIcEENS_9allocatorIcEEEE,
                          __ZTINSt3__119basic_istringstreamIcNS_11char_traitsIcEENS_9allocatorIcEEEE,
                          __ZTINSt3__119basic_ostringstreamIcNS_11char_traitsIcEENS_9allocatorIcEEEE,
                          __ZTINSt3__19basic_iosIcNS_11char_traitsIcEEEE, __ZTS10OpProgress, __ZTS10edspIFType,
                          __ZTS10eippIFType, __ZTS11CleanupItem, __ZTS12NoActionItem, __ZTS12debIFTypePkg,
                          __ZTS12debIFTypeSrc, __ZTS12debSLTypeDeb, __ZTS13FileFdPrivate, __ZTS13WeakPointable,
                          __ZTS14debIFTypeTrans, __ZTS15SHA256Summation, __ZTS15SHA512Summation, __ZTS15debIFTypeStatus,
                          __ZTS15debSLTypeDebSrc, __ZTS15debSLTypeDebian, __ZTS16Bz2FileFdPrivate, __ZTS16debIFTypeDscFile,
                          __ZTS17GzipFileFdPrivate, __ZTS17LzmaFileFdPrivate, __ZTS17SHA2SummationBase,
                          __ZTS18PipedFileFdPrivate, __ZTS18debDscRecordParser, __ZTS19DirectFileFdPrivate,
                          __ZTS19debIFTypeDebPkgFile, __ZTS21debTranslationsParser, __ZTS23SummationImplementation,
                          __ZTS24debIFTypeDebianSourceDir, __ZTS26BufferedWriteFileFdPrivate,
                          __ZTSN11pkgDepCache13InRootSetFuncE, __ZTSN11pkgDepCache18DefaultRootSetFuncE,
                          __ZTSN11pkgSimulate6PolicyE, __ZTSN12pkgIndexFile4TypeE,
                          __ZTSN3APT16PackageContainerINSt3__13setIN8pkgCache11PkgIteratorENS1_4lessIS4_EENS1_9allocatorIS4_EEEEEE,
                          __ZTSN3APT16PackageContainerINSt3__14listIN8pkgCache11PkgIteratorENS1_9allocatorIS4_EEEEEE,
                          __ZTSN3APT16VersionContainerINSt3__14listIN8pkgCache11VerIteratorENS1_9allocatorIS4_EEEEEE,
                          __ZTSN3APT16VersionContainerINSt3__16vectorIN8pkgCache11VerIteratorENS1_9allocatorIS4_EEEEEE,
                          __ZTSN8pkgCache9NamespaceE, __ZTSNSt3__113basic_filebufIcNS_11char_traitsIcEEEE,
                          __ZTSNSt3__113basic_istreamIcNS_11char_traitsIcEEEE,
                          __ZTSNSt3__113basic_ostreamIcNS_11char_traitsIcEEEE,
                          __ZTSNSt3__114basic_ifstreamIcNS_11char_traitsIcEEEE,
                          __ZTSNSt3__114basic_iostreamIcNS_11char_traitsIcEEEE,
                          __ZTSNSt3__114basic_ofstreamIcNS_11char_traitsIcEEEE,
                          __ZTSNSt3__115basic_streambufIcNS_11char_traitsIcEEEE,
                          __ZTSNSt3__115basic_stringbufIcNS_11char_traitsIcEENS_9allocatorIcEEEE,
                          __ZTSNSt3__118basic_stringstreamIcNS_11char_traitsIcEENS_9allocatorIcEEEE,
                          __ZTSNSt3__119basic_istringstreamIcNS_11char_traitsIcEENS_9allocatorIcEEEE,
                          __ZTSNSt3__119basic_ostringstreamIcNS_11char_traitsIcEENS_9allocatorIcEEEE,
                          __ZTSNSt3__19basic_iosIcNS_11char_traitsIcEEEE,
                          __ZZNSt3__116__find_bool_trueINS_6vectorIbNS_9allocatorIbEEEELb0EEENS_14__bit_iteratorIT_XT0_EXLi0EEEES7_NS6_9size_typeEE15__bits_per_word ]
...
